ccopy_reg
_reconstructor
p0
(cnltk.classify.naivebayes
NaiveBayesClassifier
p1
c__builtin__
object
p2
Ntp3
Rp4
(dp5
S'_labels'
p6
(lp7
S'neg'
p8
aS'pos'
p9
asS'_feature_probdist'
p10
(dp11
(g9
S'questions'
p12
tp13
g0
(cnltk.probability
ELEProbDist
p14
g2
Ntp15
Rp16
(dp17
S'_gamma'
p18
F0.5
sS'_N'
p19
I17
sS'_freqdist'
p20
g0
(cnltk.probability
FreqDist
p21
c__builtin__
dict
p22
(dp23
I01
I1
sNI16
stp24
Rp25
(dp26
g19
I17
sS'_max_cache'
p27
NsS'_item_cache'
p28
(lp29
(NI16
tp30
a(I01
I1
tp31
asS'_Nr_cache'
p32
NsbsS'_bins'
p33
I2
sS'_divisor'
p34
F18.0
sbs(g8
S'pledge'
p35
tp36
g0
(g14
g2
Ntp37
Rp38
(dp39
g18
F0.5
sg19
I19
sg20
g0
(g21
g22
(dp40
NI19
stp41
Rp42
(dp43
g19
I19
sg27
Nsg28
(lp44
(NI19
tp45
asg32
Nsbsg33
I2
sg34
F20.0
sbs(g8
S'weather'
p46
tp47
g0
(g14
g2
Ntp48
Rp49
(dp50
g18
F0.5
sg19
I19
sg20
g0
(g21
g22
(dp51
NI19
stp52
Rp53
(dp54
g19
I19
sg27
Nsg28
(lp55
(NI19
tp56
asg32
Nsbsg33
I2
sg34
F20.0
sbs(g8
S'11th'
p57
tp58
g0
(g14
g2
Ntp59
Rp60
(dp61
g18
F0.5
sg19
I19
sg20
g0
(g21
g22
(dp62
I01
I1
sNI18
stp63
Rp64
(dp65
g19
I19
sg27
Nsg28
(lp66
(NI18
tp67
a(I01
I1
tp68
asg32
Nsbsg33
I2
sg34
F20.0
sbs(g8
S'good'
p69
tp70
g0
(g14
g2
Ntp71
Rp72
(dp73
g18
F0.5
sg19
I19
sg20
g0
(g21
g22
(dp74
NI19
stp75
Rp76
(dp77
g19
I19
sg27
Nsg28
(lp78
(NI19
tp79
asg32
Nsbsg33
I2
sg34
F20.0
sbs(g8
S'of'
p80
tp81
g0
(g14
g2
Ntp82
Rp83
(dp84
g18
F0.5
sg19
I19
sg20
g0
(g21
g22
(dp85
I01
I2
sNI17
stp86
Rp87
(dp88
g19
I19
sg27
Nsg28
(lp89
(NI17
tp90
a(I01
I2
tp91
asg32
Nsbsg33
I2
sg34
F20.0
sbs(g9
S'ahead'
p92
tp93
g0
(g14
g2
Ntp94
Rp95
(dp96
g18
F0.5
sg19
I17
sg20
g0
(g21
g22
(dp97
I01
I1
sNI16
stp98
Rp99
(dp100
g19
I17
sg27
Nsg28
(lp101
(NI16
tp102
a(I01
I1
tp103
asg32
Nsbsg33
I2
sg34
F18.0
sbs(g8
S'early'
p104
tp105
g0
(g14
g2
Ntp106
Rp107
(dp108
g18
F0.5
sg19
I19
sg20
g0
(g21
g22
(dp109
I01
I1
sNI18
stp110
Rp111
(dp112
g19
I19
sg27
Nsg28
(lp113
(NI18
tp114
a(I01
I1
tp115
asg32
Nsbsg33
I2
sg34
F20.0
sbs(g8
S'belong'
p116
tp117
g0
(g14
g2
Ntp118
Rp119
(dp120
g18
F0.5
sg19
I19
sg20
g0
(g21
g22
(dp121
I01
I1
sNI18
stp122
Rp123
(dp124
g19
I19
sg27
Nsg28
(lp125
(NI18
tp126
a(I01
I1
tp127
asg32
Nsbsg33
I2
sg34
F20.0
sbs(g8
S'south'
p128
tp129
g0
(g14
g2
Ntp130
Rp131
(dp132
g18
F0.5
sg19
I19
sg20
g0
(g21
g22
(dp133
I01
I2
sNI17
stp134
Rp135
(dp136
g19
I19
sg27
Nsg28
(lp137
(NI17
tp138
a(I01
I2
tp139
asg32
Nsbsg33
I2
sg34
F20.0
sbs(g9
S'any'
p140
tp141
g0
(g14
g2
Ntp142
Rp143
(dp144
g18
F0.5
sg19
I17
sg20
g0
(g21
g22
(dp145
I01
I2
sNI15
stp146
Rp147
(dp148
g19
I17
sg27
Nsg28
(lp149
(NI15
tp150
a(I01
I2
tp151
asg32
Nsbsg33
I2
sg34
F18.0
sbs(g9
S'?'
p152
tp153
g0
(g14
g2
Ntp154
Rp155
(dp156
g18
F0.5
sg19
I17
sg20
g0
(g21
g22
(dp157
NI17
stp158
Rp159
(dp160
g19
I17
sg27
Nsg28
(lp161
(NI17
tp162
asg32
Nsbsg33
I2
sg34
F18.0
sbs(g9
S'>,'
p163
tp164
g0
(g14
g2
Ntp165
Rp166
(dp167
g18
F0.5
sg19
I17
sg20
g0
(g21
g22
(dp168
NI17
stp169
Rp170
(dp171
g19
I17
sg27
Nsg28
(lp172
(NI17
tp173
asg32
Nsbsg33
I2
sg34
F18.0
sbs(g9
S'board'
p174
tp175
g0
(g14
g2
Ntp176
Rp177
(dp178
g18
F0.5
sg19
I17
sg20
g0
(g21
g22
(dp179
NI17
stp180
Rp181
(dp182
g19
I17
sg27
Nsg28
(lp183
(NI17
tp184
asg32
Nsbsg33
I2
sg34
F18.0
sbs(g8
S'believe'
p185
tp186
g0
(g14
g2
Ntp187
Rp188
(dp189
g18
F0.5
sg19
I19
sg20
g0
(g21
g22
(dp190
I01
I1
sNI18
stp191
Rp192
(dp193
g19
I19
sg27
Nsg28
(lp194
(NI18
tp195
a(I01
I1
tp196
asg32
Nsbsg33
I2
sg34
F20.0
sbs(g8
S'oklahoma'
p197
tp198
g0
(g14
g2
Ntp199
Rp200
(dp201
g18
F0.5
sg19
I19
sg20
g0
(g21
g22
(dp202
I01
I1
sNI18
stp203
Rp204
(dp205
g19
I19
sg27
Nsg28
(lp206
(NI18
tp207
a(I01
I1
tp208
asg32
Nsbsg33
I2
sg34
F20.0
sbs(g9
S'cruel?'
p209
tp210
g0
(g14
g2
Ntp211
Rp212
(dp213
g18
F0.5
sg19
I17
sg20
g0
(g21
g22
(dp214
NI17
stp215
Rp216
(dp217
g19
I17
sg27
Nsg28
(lp218
(NI17
tp219
asg32
Nsbsg33
I2
sg34
F18.0
sbs(g9
S'prep'
p220
tp221
g0
(g14
g2
Ntp222
Rp223
(dp224
g18
F0.5
sg19
I17
sg20
g0
(g21
g22
(dp225
I01
I1
sNI16
stp226
Rp227
(dp228
g19
I17
sg27
Nsg28
(lp229
(NI16
tp230
a(I01
I1
tp231
asg32
Nsbsg33
I2
sg34
F18.0
sbs(g9
S'of'
p232
tp233
g0
(g14
g2
Ntp234
Rp235
(dp236
g18
F0.5
sg19
I17
sg20
g0
(g21
g22
(dp237
I01
I6
sNI11
stp238
Rp239
(dp240
g19
I17
sg27
Nsg28
(lp241
(NI11
tp242
a(I01
I6
tp243
asg32
Nsbsg33
I2
sg34
F18.0
sbs(g8
S'need'
p244
tp245
g0
(g14
g2
Ntp246
Rp247
(dp248
g18
F0.5
sg19
I19
sg20
g0
(g21
g22
(dp249
I01
I1
sNI18
stp250
Rp251
(dp252
g19
I19
sg27
Nsg28
(lp253
(NI18
tp254
a(I01
I1
tp255
asg32
Nsbsg33
I2
sg34
F20.0
sbs(g8
S'bye'
p256
tp257
g0
(g14
g2
Ntp258
Rp259
(dp260
g18
F0.5
sg19
I19
sg20
g0
(g21
g22
(dp261
NI19
stp262
Rp263
(dp264
g19
I19
sg27
Nsg28
(lp265
(NI19
tp266
asg32
Nsbsg33
I2
sg34
F20.0
sbs(g8
S'boots'
p267
tp268
g0
(g14
g2
Ntp269
Rp270
(dp271
g18
F0.5
sg19
I19
sg20
g0
(g21
g22
(dp272
I01
I1
sNI18
stp273
Rp274
(dp275
g19
I19
sg27
Nsg28
(lp276
(NI18
tp277
a(I01
I1
tp278
asg32
Nsbsg33
I2
sg34
F20.0
sbs(g8
S'<'
p279
tp280
g0
(g14
g2
Ntp281
Rp282
(dp283
g18
F0.5
sg19
I19
sg20
g0
(g21
g22
(dp284
I01
I5
sNI14
stp285
Rp286
(dp287
g19
I19
sg27
Nsg28
(lp288
(NI14
tp289
a(I01
I5
tp290
asg32
Nsbsg33
I2
sg34
F20.0
sbs(g9
g267
tp291
g0
(g14
g2
Ntp292
Rp293
(dp294
g18
F0.5
sg19
I17
sg20
g0
(g21
g22
(dp295
NI17
stp296
Rp297
(dp298
g19
I17
sg27
Nsg28
(lp299
(NI17
tp300
asg32
Nsbsg33
I2
sg34
F18.0
sbs(g9
S'off'
p301
tp302
g0
(g14
g2
Ntp303
Rp304
(dp305
g18
F0.5
sg19
I17
sg20
g0
(g21
g22
(dp306
NI17
stp307
Rp308
(dp309
g19
I17
sg27
Nsg28
(lp310
(NI17
tp311
asg32
Nsbsg33
I2
sg34
F18.0
sbs(g8
S"year's"
p312
tp313
g0
(g14
g2
Ntp314
Rp315
(dp316
g18
F0.5
sg19
I19
sg20
g0
(g21
g22
(dp317
I01
I1
sNI18
stp318
Rp319
(dp320
g19
I19
sg27
Nsg28
(lp321
(NI18
tp322
a(I01
I1
tp323
asg32
Nsbsg33
I2
sg34
F20.0
sbs(g8
S'work'
p324
tp325
g0
(g14
g2
Ntp326
Rp327
(dp328
g18
F0.5
sg19
I19
sg20
g0
(g21
g22
(dp329
I01
I2
sNI17
stp330
Rp331
(dp332
g19
I19
sg27
Nsg28
(lp333
(NI17
tp334
a(I01
I2
tp335
asg32
Nsbsg33
I2
sg34
F20.0
sbs(g9
S'by'
p336
tp337
g0
(g14
g2
Ntp338
Rp339
(dp340
g18
F0.5
sg19
I17
sg20
g0
(g21
g22
(dp341
I01
I1
sNI16
stp342
Rp343
(dp344
g19
I17
sg27
Nsg28
(lp345
(NI16
tp346
a(I01
I1
tp347
asg32
Nsbsg33
I2
sg34
F18.0
sbs(g9
S'this'
p348
tp349
g0
(g14
g2
Ntp350
Rp351
(dp352
g18
F0.5
sg19
I17
sg20
g0
(g21
g22
(dp353
I01
I1
sNI16
stp354
Rp355
(dp356
g19
I17
sg27
Nsg28
(lp357
(NI16
tp358
a(I01
I1
tp359
asg32
Nsbsg33
I2
sg34
F18.0
sbs(g8
S'hmmm'
p360
tp361
g0
(g14
g2
Ntp362
Rp363
(dp364
g18
F0.5
sg19
I19
sg20
g0
(g21
g22
(dp365
I01
I1
sNI18
stp366
Rp367
(dp368
g19
I19
sg27
Nsg28
(lp369
(NI18
tp370
a(I01
I1
tp371
asg32
Nsbsg33
I2
sg34
F20.0
sbs(g9
g360
tp372
g0
(g14
g2
Ntp373
Rp374
(dp375
g18
F0.5
sg19
I17
sg20
g0
(g21
g22
(dp376
NI17
stp377
Rp378
(dp379
g19
I17
sg27
Nsg28
(lp380
(NI17
tp381
asg32
Nsbsg33
I2
sg34
F18.0
sbs(g9
g197
tp382
g0
(g14
g2
Ntp383
Rp384
(dp385
g18
F0.5
sg19
I17
sg20
g0
(g21
g22
(dp386
NI17
stp387
Rp388
(dp389
g19
I17
sg27
Nsg28
(lp390
(NI17
tp391
asg32
Nsbsg33
I2
sg34
F18.0
sbs(g8
S">'s"
p392
tp393
g0
(g14
g2
Ntp394
Rp395
(dp396
g18
F0.5
sg19
I19
sg20
g0
(g21
g22
(dp397
I01
I1
sNI18
stp398
Rp399
(dp400
g19
I19
sg27
Nsg28
(lp401
(NI18
tp402
a(I01
I1
tp403
asg32
Nsbsg33
I2
sg34
F20.0
sbs(g9
S'have'
p404
tp405
g0
(g14
g2
Ntp406
Rp407
(dp408
g18
F0.5
sg19
I17
sg20
g0
(g21
g22
(dp409
NI17
stp410
Rp411
(dp412
g19
I17
sg27
Nsg28
(lp413
(NI17
tp414
asg32
Nsbsg33
I2
sg34
F18.0
sbs(g8
S'house'
p415
tp416
g0
(g14
g2
Ntp417
Rp418
(dp419
g18
F0.5
sg19
I19
sg20
g0
(g21
g22
(dp420
NI19
stp421
Rp422
(dp423
g19
I19
sg27
Nsg28
(lp424
(NI19
tp425
asg32
Nsbsg33
I2
sg34
F20.0
sbs(g9
S't.'
p426
tp427
g0
(g14
g2
Ntp428
Rp429
(dp430
g18
F0.5
sg19
I17
sg20
g0
(g21
g22
(dp431
NI17
stp432
Rp433
(dp434
g19
I17
sg27
Nsg28
(lp435
(NI17
tp436
asg32
Nsbsg33
I2
sg34
F18.0
sbs(g9
g256
tp437
g0
(g14
g2
Ntp438
Rp439
(dp440
g18
F0.5
sg19
I17
sg20
g0
(g21
g22
(dp441
I01
I1
sNI16
stp442
Rp443
(dp444
g19
I17
sg27
Nsg28
(lp445
(NI16
tp446
a(I01
I1
tp447
asg32
Nsbsg33
I2
sg34
F18.0
sbs(g9
S'being'
p448
tp449
g0
(g14
g2
Ntp450
Rp451
(dp452
g18
F0.5
sg19
I17
sg20
g0
(g21
g22
(dp453
I01
I1
sNI16
stp454
Rp455
(dp456
g19
I17
sg27
Nsg28
(lp457
(NI16
tp458
a(I01
I1
tp459
asg32
Nsbsg33
I2
sg34
F18.0
sbs(g9
S'west'
p460
tp461
g0
(g14
g2
Ntp462
Rp463
(dp464
g18
F0.5
sg19
I17
sg20
g0
(g21
g22
(dp465
I01
I1
sNI16
stp466
Rp467
(dp468
g19
I17
sg27
Nsg28
(lp469
(NI16
tp470
a(I01
I1
tp471
asg32
Nsbsg33
I2
sg34
F18.0
sbs(g8
S'tonite'
p472
tp473
g0
(g14
g2
Ntp474
Rp475
(dp476
g18
F0.5
sg19
I19
sg20
g0
(g21
g22
(dp477
I01
I1
sNI18
stp478
Rp479
(dp480
g19
I19
sg27
Nsg28
(lp481
(NI18
tp482
a(I01
I1
tp483
asg32
Nsbsg33
I2
sg34
F20.0
sbs(g8
S'watching'
p484
tp485
g0
(g14
g2
Ntp486
Rp487
(dp488
g18
F0.5
sg19
I19
sg20
g0
(g21
g22
(dp489
NI19
stp490
Rp491
(dp492
g19
I19
sg27
Nsg28
(lp493
(NI19
tp494
asg32
Nsbsg33
I2
sg34
F20.0
sbs(g9
S'please.'
p495
tp496
g0
(g14
g2
Ntp497
Rp498
(dp499
g18
F0.5
sg19
I17
sg20
g0
(g21
g22
(dp500
I01
I1
sNI16
stp501
Rp502
(dp503
g19
I17
sg27
Nsg28
(lp504
(NI16
tp505
a(I01
I1
tp506
asg32
Nsbsg33
I2
sg34
F18.0
sbs(g9
S'sister'
p507
tp508
g0
(g14
g2
Ntp509
Rp510
(dp511
g18
F0.5
sg19
I17
sg20
g0
(g21
g22
(dp512
I01
I1
sNI16
stp513
Rp514
(dp515
g19
I17
sg27
Nsg28
(lp516
(NI16
tp517
a(I01
I1
tp518
asg32
Nsbsg33
I2
sg34
F18.0
sbs(g9
S'anniversary'
p519
tp520
g0
(g14
g2
Ntp521
Rp522
(dp523
g18
F0.5
sg19
I17
sg20
g0
(g21
g22
(dp524
NI17
stp525
Rp526
(dp527
g19
I17
sg27
Nsg28
(lp528
(NI17
tp529
asg32
Nsbsg33
I2
sg34
F18.0
sbs(g8
S'facebook'
p530
tp531
g0
(g14
g2
Ntp532
Rp533
(dp534
g18
F0.5
sg19
I19
sg20
g0
(g21
g22
(dp535
NI19
stp536
Rp537
(dp538
g19
I19
sg27
Nsg28
(lp539
(NI19
tp540
asg32
Nsbsg33
I2
sg34
F20.0
sbs(g9
g312
tp541
g0
(g14
g2
Ntp542
Rp543
(dp544
g18
F0.5
sg19
I17
sg20
g0
(g21
g22
(dp545
NI17
stp546
Rp547
(dp548
g19
I17
sg27
Nsg28
(lp549
(NI17
tp550
asg32
Nsbsg33
I2
sg34
F18.0
sbs(g8
S'2011'
p551
tp552
g0
(g14
g2
Ntp553
Rp554
(dp555
g18
F0.5
sg19
I19
sg20
g0
(g21
g22
(dp556
I01
I1
sNI18
stp557
Rp558
(dp559
g19
I19
sg27
Nsg28
(lp560
(NI18
tp561
a(I01
I1
tp562
asg32
Nsbsg33
I2
sg34
F20.0
sbs(g8
S'your'
p563
tp564
g0
(g14
g2
Ntp565
Rp566
(dp567
g18
F0.5
sg19
I19
sg20
g0
(g21
g22
(dp568
NI19
stp569
Rp570
(dp571
g19
I19
sg27
Nsg28
(lp572
(NI19
tp573
asg32
Nsbsg33
I2
sg34
F20.0
sbs(g9
S'wanna'
p574
tp575
g0
(g14
g2
Ntp576
Rp577
(dp578
g18
F0.5
sg19
I17
sg20
g0
(g21
g22
(dp579
NI17
stp580
Rp581
(dp582
g19
I17
sg27
Nsg28
(lp583
(NI17
tp584
asg32
Nsbsg33
I2
sg34
F18.0
sbs(g8
S'the'
p585
tp586
g0
(g14
g2
Ntp587
Rp588
(dp589
g18
F0.5
sg19
I19
sg20
g0
(g21
g22
(dp590
I01
I6
sNI13
stp591
Rp592
(dp593
g19
I19
sg27
Nsg28
(lp594
(NI13
tp595
a(I01
I6
tp596
asg32
Nsbsg33
I2
sg34
F20.0
sbs(g9
S'mother'
p597
tp598
g0
(g14
g2
Ntp599
Rp600
(dp601
g18
F0.5
sg19
I17
sg20
g0
(g21
g22
(dp602
NI17
stp603
Rp604
(dp605
g19
I17
sg27
Nsg28
(lp606
(NI17
tp607
asg32
Nsbsg33
I2
sg34
F18.0
sbs(g9
S'go'
p608
tp609
g0
(g14
g2
Ntp610
Rp611
(dp612
g18
F0.5
sg19
I17
sg20
g0
(g21
g22
(dp613
I01
I1
sNI16
stp614
Rp615
(dp616
g19
I17
sg27
Nsg28
(lp617
(NI16
tp618
a(I01
I1
tp619
asg32
Nsbsg33
I2
sg34
F18.0
sbs(g8
S'or'
p620
tp621
g0
(g14
g2
Ntp622
Rp623
(dp624
g18
F0.5
sg19
I19
sg20
g0
(g21
g22
(dp625
I01
I2
sNI17
stp626
Rp627
(dp628
g19
I19
sg27
Nsg28
(lp629
(NI17
tp630
a(I01
I2
tp631
asg32
Nsbsg33
I2
sg34
F20.0
sbs(g9
S'cup'
p632
tp633
g0
(g14
g2
Ntp634
Rp635
(dp636
g18
F0.5
sg19
I17
sg20
g0
(g21
g22
(dp637
I01
I1
sNI16
stp638
Rp639
(dp640
g19
I17
sg27
Nsg28
(lp641
(NI16
tp642
a(I01
I1
tp643
asg32
Nsbsg33
I2
sg34
F18.0
sbs(g9
S'video."'
p644
tp645
g0
(g14
g2
Ntp646
Rp647
(dp648
g18
F0.5
sg19
I17
sg20
g0
(g21
g22
(dp649
I01
I1
sNI16
stp650
Rp651
(dp652
g19
I17
sg27
Nsg28
(lp653
(NI16
tp654
a(I01
I1
tp655
asg32
Nsbsg33
I2
sg34
F18.0
sbs(g8
S'heard'
p656
tp657
g0
(g14
g2
Ntp658
Rp659
(dp660
g18
F0.5
sg19
I19
sg20
g0
(g21
g22
(dp661
NI19
stp662
Rp663
(dp664
g19
I19
sg27
Nsg28
(lp665
(NI19
tp666
asg32
Nsbsg33
I2
sg34
F20.0
sbs(g9
g46
tp667
g0
(g14
g2
Ntp668
Rp669
(dp670
g18
F0.5
sg19
I17
sg20
g0
(g21
g22
(dp671
I01
I1
sNI16
stp672
Rp673
(dp674
g19
I17
sg27
Nsg28
(lp675
(NI16
tp676
a(I01
I1
tp677
asg32
Nsbsg33
I2
sg34
F18.0
sbs(g8
S'american'
p678
tp679
g0
(g14
g2
Ntp680
Rp681
(dp682
g18
F0.5
sg19
I19
sg20
g0
(g21
g22
(dp683
NI19
stp684
Rp685
(dp686
g19
I19
sg27
Nsg28
(lp687
(NI19
tp688
asg32
Nsbsg33
I2
sg34
F20.0
sbs(g9
S'4th!'
p689
tp690
g0
(g14
g2
Ntp691
Rp692
(dp693
g18
F0.5
sg19
I17
sg20
g0
(g21
g22
(dp694
I01
I1
sNI16
stp695
Rp696
(dp697
g19
I17
sg27
Nsg28
(lp698
(NI16
tp699
a(I01
I1
tp700
asg32
Nsbsg33
I2
sg34
F18.0
sbs(g8
S'people'
p701
tp702
g0
(g14
g2
Ntp703
Rp704
(dp705
g18
F0.5
sg19
I19
sg20
g0
(g21
g22
(dp706
NI19
stp707
Rp708
(dp709
g19
I19
sg27
Nsg28
(lp710
(NI19
tp711
asg32
Nsbsg33
I2
sg34
F20.0
sbs(g8
S'due'
p712
tp713
g0
(g14
g2
Ntp714
Rp715
(dp716
g18
F0.5
sg19
I19
sg20
g0
(g21
g22
(dp717
I01
I1
sNI18
stp718
Rp719
(dp720
g19
I19
sg27
Nsg28
(lp721
(NI18
tp722
a(I01
I1
tp723
asg32
Nsbsg33
I2
sg34
F20.0
sbs(g9
S'interview'
p724
tp725
g0
(g14
g2
Ntp726
Rp727
(dp728
g18
F0.5
sg19
I17
sg20
g0
(g21
g22
(dp729
I01
I1
sNI16
stp730
Rp731
(dp732
g19
I17
sg27
Nsg28
(lp733
(NI16
tp734
a(I01
I1
tp735
asg32
Nsbsg33
I2
sg34
F18.0
sbs(g9
S'next'
p736
tp737
g0
(g14
g2
Ntp738
Rp739
(dp740
g18
F0.5
sg19
I17
sg20
g0
(g21
g22
(dp741
NI17
stp742
Rp743
(dp744
g19
I17
sg27
Nsg28
(lp745
(NI17
tp746
asg32
Nsbsg33
I2
sg34
F18.0
sbs(g9
S'skinny'
p747
tp748
g0
(g14
g2
Ntp749
Rp750
(dp751
g18
F0.5
sg19
I17
sg20
g0
(g21
g22
(dp752
I01
I1
sNI16
stp753
Rp754
(dp755
g19
I17
sg27
Nsg28
(lp756
(NI16
tp757
a(I01
I1
tp758
asg32
Nsbsg33
I2
sg34
F18.0
sbs(g8
S'food?'
p759
tp760
g0
(g14
g2
Ntp761
Rp762
(dp763
g18
F0.5
sg19
I19
sg20
g0
(g21
g22
(dp764
I01
I1
sNI18
stp765
Rp766
(dp767
g19
I19
sg27
Nsg28
(lp768
(NI18
tp769
a(I01
I1
tp770
asg32
Nsbsg33
I2
sg34
F20.0
sbs(g8
S'fog'
p771
tp772
g0
(g14
g2
Ntp773
Rp774
(dp775
g18
F0.5
sg19
I19
sg20
g0
(g21
g22
(dp776
I01
I1
sNI18
stp777
Rp778
(dp779
g19
I19
sg27
Nsg28
(lp780
(NI18
tp781
a(I01
I1
tp782
asg32
Nsbsg33
I2
sg34
F20.0
sbs(g8
S'wants'
p783
tp784
g0
(g14
g2
Ntp785
Rp786
(dp787
g18
F0.5
sg19
I19
sg20
g0
(g21
g22
(dp788
I01
I1
sNI18
stp789
Rp790
(dp791
g19
I19
sg27
Nsg28
(lp792
(NI18
tp793
a(I01
I1
tp794
asg32
Nsbsg33
I2
sg34
F20.0
sbs(g9
S'under'
p795
tp796
g0
(g14
g2
Ntp797
Rp798
(dp799
g18
F0.5
sg19
I17
sg20
g0
(g21
g22
(dp800
I01
I1
sNI16
stp801
Rp802
(dp803
g19
I17
sg27
Nsg28
(lp804
(NI16
tp805
a(I01
I1
tp806
asg32
Nsbsg33
I2
sg34
F18.0
sbs(g8
g689
tp807
g0
(g14
g2
Ntp808
Rp809
(dp810
g18
F0.5
sg19
I19
sg20
g0
(g21
g22
(dp811
NI19
stp812
Rp813
(dp814
g19
I19
sg27
Nsg28
(lp815
(NI19
tp816
asg32
Nsbsg33
I2
sg34
F20.0
sbs(g8
S'ever'
p817
tp818
g0
(g14
g2
Ntp819
Rp820
(dp821
g18
F0.5
sg19
I19
sg20
g0
(g21
g22
(dp822
I01
I1
sNI18
stp823
Rp824
(dp825
g19
I19
sg27
Nsg28
(lp826
(NI18
tp827
a(I01
I1
tp828
asg32
Nsbsg33
I2
sg34
F20.0
sbs(g8
S'not'
p829
tp830
g0
(g14
g2
Ntp831
Rp832
(dp833
g18
F0.5
sg19
I19
sg20
g0
(g21
g22
(dp834
NI19
stp835
Rp836
(dp837
g19
I19
sg27
Nsg28
(lp838
(NI19
tp839
asg32
Nsbsg33
I2
sg34
F20.0
sbs(g9
S'at'
p840
tp841
g0
(g14
g2
Ntp842
Rp843
(dp844
g18
F0.5
sg19
I17
sg20
g0
(g21
g22
(dp845
I01
I4
sNI13
stp846
Rp847
(dp848
g19
I17
sg27
Nsg28
(lp849
(NI13
tp850
a(I01
I4
tp851
asg32
Nsbsg33
I2
sg34
F18.0
sbs(g8
S'jeans'
p852
tp853
g0
(g14
g2
Ntp854
Rp855
(dp856
g18
F0.5
sg19
I19
sg20
g0
(g21
g22
(dp857
NI19
stp858
Rp859
(dp860
g19
I19
sg27
Nsg28
(lp861
(NI19
tp862
asg32
Nsbsg33
I2
sg34
F20.0
sbs(g9
S'coming'
p863
tp864
g0
(g14
g2
Ntp865
Rp866
(dp867
g18
F0.5
sg19
I17
sg20
g0
(g21
g22
(dp868
I01
I1
sNI16
stp869
Rp870
(dp871
g19
I17
sg27
Nsg28
(lp872
(NI16
tp873
a(I01
I1
tp874
asg32
Nsbsg33
I2
sg34
F18.0
sbs(g9
S','
p875
tp876
g0
(g14
g2
Ntp877
Rp878
(dp879
g18
F0.5
sg19
I17
sg20
g0
(g21
g22
(dp880
I01
I2
sNI15
stp881
Rp882
(dp883
g19
I17
sg27
Nsg28
(lp884
(NI15
tp885
a(I01
I2
tp886
asg32
Nsbsg33
I2
sg34
F18.0
sbs(g9
S'because'
p887
tp888
g0
(g14
g2
Ntp889
Rp890
(dp891
g18
F0.5
sg19
I17
sg20
g0
(g21
g22
(dp892
I01
I1
sNI16
stp893
Rp894
(dp895
g19
I17
sg27
Nsg28
(lp896
(NI16
tp897
a(I01
I1
tp898
asg32
Nsbsg33
I2
sg34
F18.0
sbs(g9
S'morning'
p899
tp900
g0
(g14
g2
Ntp901
Rp902
(dp903
g18
F0.5
sg19
I17
sg20
g0
(g21
g22
(dp904
I01
I1
sNI16
stp905
Rp906
(dp907
g19
I17
sg27
Nsg28
(lp908
(NI16
tp909
a(I01
I1
tp910
asg32
Nsbsg33
I2
sg34
F18.0
sbs(g8
S'beach'
p911
tp912
g0
(g14
g2
Ntp913
Rp914
(dp915
g18
F0.5
sg19
I19
sg20
g0
(g21
g22
(dp916
NI19
stp917
Rp918
(dp919
g19
I19
sg27
Nsg28
(lp920
(NI19
tp921
asg32
Nsbsg33
I2
sg34
F20.0
sbs(g8
S'event'
p922
tp923
g0
(g14
g2
Ntp924
Rp925
(dp926
g18
F0.5
sg19
I19
sg20
g0
(g21
g22
(dp927
I01
I1
sNI18
stp928
Rp929
(dp930
g19
I19
sg27
Nsg28
(lp931
(NI18
tp932
a(I01
I1
tp933
asg32
Nsbsg33
I2
sg34
F20.0
sbs(g9
S'thinks'
p934
tp935
g0
(g14
g2
Ntp936
Rp937
(dp938
g18
F0.5
sg19
I17
sg20
g0
(g21
g22
(dp939
NI17
stp940
Rp941
(dp942
g19
I17
sg27
Nsg28
(lp943
(NI17
tp944
asg32
Nsbsg33
I2
sg34
F18.0
sbs(g9
S'roast'
p945
tp946
g0
(g14
g2
Ntp947
Rp948
(dp949
g18
F0.5
sg19
I17
sg20
g0
(g21
g22
(dp950
NI17
stp951
Rp952
(dp953
g19
I17
sg27
Nsg28
(lp954
(NI17
tp955
asg32
Nsbsg33
I2
sg34
F18.0
sbs(g9
S'please'
p956
tp957
g0
(g14
g2
Ntp958
Rp959
(dp960
g18
F0.5
sg19
I17
sg20
g0
(g21
g22
(dp961
NI17
stp962
Rp963
(dp964
g19
I17
sg27
Nsg28
(lp965
(NI17
tp966
asg32
Nsbsg33
I2
sg34
F18.0
sbs(g9
S'new'
p967
tp968
g0
(g14
g2
Ntp969
Rp970
(dp971
g18
F0.5
sg19
I17
sg20
g0
(g21
g22
(dp972
I01
I1
sNI16
stp973
Rp974
(dp975
g19
I17
sg27
Nsg28
(lp976
(NI16
tp977
a(I01
I1
tp978
asg32
Nsbsg33
I2
sg34
F18.0
sbs(g9
S'like'
p979
tp980
g0
(g14
g2
Ntp981
Rp982
(dp983
g18
F0.5
sg19
I17
sg20
g0
(g21
g22
(dp984
I01
I1
sNI16
stp985
Rp986
(dp987
g19
I17
sg27
Nsg28
(lp988
(NI16
tp989
a(I01
I1
tp990
asg32
Nsbsg33
I2
sg34
F18.0
sbs(g8
S'open'
p991
tp992
g0
(g14
g2
Ntp993
Rp994
(dp995
g18
F0.5
sg19
I19
sg20
g0
(g21
g22
(dp996
I01
I1
sNI18
stp997
Rp998
(dp999
g19
I19
sg27
Nsg28
(lp1000
(NI18
tp1001
a(I01
I1
tp1002
asg32
Nsbsg33
I2
sg34
F20.0
sbs(g8
g863
tp1003
g0
(g14
g2
Ntp1004
Rp1005
(dp1006
g18
F0.5
sg19
I19
sg20
g0
(g21
g22
(dp1007
NI19
stp1008
Rp1009
(dp1010
g19
I19
sg27
Nsg28
(lp1011
(NI19
tp1012
asg32
Nsbsg33
I2
sg34
F20.0
sbs(g8
g301
tp1013
g0
(g14
g2
Ntp1014
Rp1015
(dp1016
g18
F0.5
sg19
I19
sg20
g0
(g21
g22
(dp1017
I01
I1
sNI18
stp1018
Rp1019
(dp1020
g19
I19
sg27
Nsg28
(lp1021
(NI18
tp1022
a(I01
I1
tp1023
asg32
Nsbsg33
I2
sg34
F20.0
sbs(g8
S'service'
p1024
tp1025
g0
(g14
g2
Ntp1026
Rp1027
(dp1028
g18
F0.5
sg19
I19
sg20
g0
(g21
g22
(dp1029
NI19
stp1030
Rp1031
(dp1032
g19
I19
sg27
Nsg28
(lp1033
(NI19
tp1034
asg32
Nsbsg33
I2
sg34
F20.0
sbs(g9
S'goodbye'
p1035
tp1036
g0
(g14
g2
Ntp1037
Rp1038
(dp1039
g18
F0.5
sg19
I17
sg20
g0
(g21
g22
(dp1040
NI17
stp1041
Rp1042
(dp1043
g19
I17
sg27
Nsg28
(lp1044
(NI17
tp1045
asg32
Nsbsg33
I2
sg34
F18.0
sbs(g8
g519
tp1046
g0
(g14
g2
Ntp1047
Rp1048
(dp1049
g18
F0.5
sg19
I19
sg20
g0
(g21
g22
(dp1050
I01
I1
sNI18
stp1051
Rp1052
(dp1053
g19
I19
sg27
Nsg28
(lp1054
(NI18
tp1055
a(I01
I1
tp1056
asg32
Nsbsg33
I2
sg34
F20.0
sbs(g8
S'me'
p1057
tp1058
g0
(g14
g2
Ntp1059
Rp1060
(dp1061
g18
F0.5
sg19
I19
sg20
g0
(g21
g22
(dp1062
I01
I1
sNI18
stp1063
Rp1064
(dp1065
g19
I19
sg27
Nsg28
(lp1066
(NI18
tp1067
a(I01
I1
tp1068
asg32
Nsbsg33
I2
sg34
F20.0
sbs(g8
S'friday.'
p1069
tp1070
g0
(g14
g2
Ntp1071
Rp1072
(dp1073
g18
F0.5
sg19
I19
sg20
g0
(g21
g22
(dp1074
NI19
stp1075
Rp1076
(dp1077
g19
I19
sg27
Nsg28
(lp1078
(NI19
tp1079
asg32
Nsbsg33
I2
sg34
F20.0
sbs(g8
S'then'
p1080
tp1081
g0
(g14
g2
Ntp1082
Rp1083
(dp1084
g18
F0.5
sg19
I19
sg20
g0
(g21
g22
(dp1085
I01
I1
sNI18
stp1086
Rp1087
(dp1088
g19
I19
sg27
Nsg28
(lp1089
(NI18
tp1090
a(I01
I1
tp1091
asg32
Nsbsg33
I2
sg34
F20.0
sbs(g8
S'mom'
p1092
tp1093
g0
(g14
g2
Ntp1094
Rp1095
(dp1096
g18
F0.5
sg19
I19
sg20
g0
(g21
g22
(dp1097
NI19
stp1098
Rp1099
(dp1100
g19
I19
sg27
Nsg28
(lp1101
(NI19
tp1102
asg32
Nsbsg33
I2
sg34
F20.0
sbs(g8
S'('
p1103
tp1104
g0
(g14
g2
Ntp1105
Rp1106
(dp1107
g18
F0.5
sg19
I19
sg20
g0
(g21
g22
(dp1108
NI19
stp1109
Rp1110
(dp1111
g19
I19
sg27
Nsg28
(lp1112
(NI19
tp1113
asg32
Nsbsg33
I2
sg34
F20.0
sbs(g9
S'fit'
p1114
tp1115
g0
(g14
g2
Ntp1116
Rp1117
(dp1118
g18
F0.5
sg19
I17
sg20
g0
(g21
g22
(dp1119
I01
I1
sNI16
stp1120
Rp1121
(dp1122
g19
I17
sg27
Nsg28
(lp1123
(NI16
tp1124
a(I01
I1
tp1125
asg32
Nsbsg33
I2
sg34
F18.0
sbs(g9
g415
tp1126
g0
(g14
g2
Ntp1127
Rp1128
(dp1129
g18
F0.5
sg19
I17
sg20
g0
(g21
g22
(dp1130
I01
I1
sNI16
stp1131
Rp1132
(dp1133
g19
I17
sg27
Nsg28
(lp1134
(NI16
tp1135
a(I01
I1
tp1136
asg32
Nsbsg33
I2
sg34
F18.0
sbs(g9
S'lives'
p1137
tp1138
g0
(g14
g2
Ntp1139
Rp1140
(dp1141
g18
F0.5
sg19
I17
sg20
g0
(g21
g22
(dp1142
I01
I1
sNI16
stp1143
Rp1144
(dp1145
g19
I17
sg27
Nsg28
(lp1146
(NI16
tp1147
a(I01
I1
tp1148
asg32
Nsbsg33
I2
sg34
F18.0
sbs(g8
S'drink'
p1149
tp1150
g0
(g14
g2
Ntp1151
Rp1152
(dp1153
g18
F0.5
sg19
I19
sg20
g0
(g21
g22
(dp1154
I01
I1
sNI18
stp1155
Rp1156
(dp1157
g19
I19
sg27
Nsg28
(lp1158
(NI18
tp1159
a(I01
I1
tp1160
asg32
Nsbsg33
I2
sg34
F20.0
sbs(g9
S'be'
p1161
tp1162
g0
(g14
g2
Ntp1163
Rp1164
(dp1165
g18
F0.5
sg19
I17
sg20
g0
(g21
g22
(dp1166
I01
I1
sNI16
stp1167
Rp1168
(dp1169
g19
I17
sg27
Nsg28
(lp1170
(NI16
tp1171
a(I01
I1
tp1172
asg32
Nsbsg33
I2
sg34
F18.0
sbs(g8
g1137
tp1173
g0
(g14
g2
Ntp1174
Rp1175
(dp1176
g18
F0.5
sg19
I19
sg20
g0
(g21
g22
(dp1177
NI19
stp1178
Rp1179
(dp1180
g19
I19
sg27
Nsg28
(lp1181
(NI19
tp1182
asg32
Nsbsg33
I2
sg34
F20.0
sbs(g8
S'day'
p1183
tp1184
g0
(g14
g2
Ntp1185
Rp1186
(dp1187
g18
F0.5
sg19
I19
sg20
g0
(g21
g22
(dp1188
I01
I1
sNI18
stp1189
Rp1190
(dp1191
g19
I19
sg27
Nsg28
(lp1192
(NI18
tp1193
a(I01
I1
tp1194
asg32
Nsbsg33
I2
sg34
F20.0
sbs(g9
S'free'
p1195
tp1196
g0
(g14
g2
Ntp1197
Rp1198
(dp1199
g18
F0.5
sg19
I17
sg20
g0
(g21
g22
(dp1200
I01
I1
sNI16
stp1201
Rp1202
(dp1203
g19
I17
sg27
Nsg28
(lp1204
(NI16
tp1205
a(I01
I1
tp1206
asg32
Nsbsg33
I2
sg34
F18.0
sbs(g9
S'was'
p1207
tp1208
g0
(g14
g2
Ntp1209
Rp1210
(dp1211
g18
F0.5
sg19
I17
sg20
g0
(g21
g22
(dp1212
I01
I1
sNI16
stp1213
Rp1214
(dp1215
g19
I17
sg27
Nsg28
(lp1216
(NI16
tp1217
a(I01
I1
tp1218
asg32
Nsbsg33
I2
sg34
F18.0
sbs(g9
S'discovered'
p1219
tp1220
g0
(g14
g2
Ntp1221
Rp1222
(dp1223
g18
F0.5
sg19
I17
sg20
g0
(g21
g22
(dp1224
I01
I1
sNI16
stp1225
Rp1226
(dp1227
g19
I17
sg27
Nsg28
(lp1228
(NI16
tp1229
a(I01
I1
tp1230
asg32
Nsbsg33
I2
sg34
F18.0
sbs(g8
g597
tp1231
g0
(g14
g2
Ntp1232
Rp1233
(dp1234
g18
F0.5
sg19
I19
sg20
g0
(g21
g22
(dp1235
I01
I1
sNI18
stp1236
Rp1237
(dp1238
g19
I19
sg27
Nsg28
(lp1239
(NI18
tp1240
a(I01
I1
tp1241
asg32
Nsbsg33
I2
sg34
F20.0
sbs(g9
S'their'
p1242
tp1243
g0
(g14
g2
Ntp1244
Rp1245
(dp1246
g18
F0.5
sg19
I17
sg20
g0
(g21
g22
(dp1247
I01
I1
sNI16
stp1248
Rp1249
(dp1250
g19
I17
sg27
Nsg28
(lp1251
(NI16
tp1252
a(I01
I1
tp1253
asg32
Nsbsg33
I2
sg34
F18.0
sbs(g9
S'back'
p1254
tp1255
g0
(g14
g2
Ntp1256
Rp1257
(dp1258
g18
F0.5
sg19
I17
sg20
g0
(g21
g22
(dp1259
I01
I1
sNI16
stp1260
Rp1261
(dp1262
g19
I17
sg27
Nsg28
(lp1263
(NI16
tp1264
a(I01
I1
tp1265
asg32
Nsbsg33
I2
sg34
F18.0
sbs(g8
g1242
tp1266
g0
(g14
g2
Ntp1267
Rp1268
(dp1269
g18
F0.5
sg19
I19
sg20
g0
(g21
g22
(dp1270
NI19
stp1271
Rp1272
(dp1273
g19
I19
sg27
Nsg28
(lp1274
(NI19
tp1275
asg32
Nsbsg33
I2
sg34
F20.0
sbs(g9
S'through'
p1276
tp1277
g0
(g14
g2
Ntp1278
Rp1279
(dp1280
g18
F0.5
sg19
I17
sg20
g0
(g21
g22
(dp1281
I01
I1
sNI16
stp1282
Rp1283
(dp1284
g19
I17
sg27
Nsg28
(lp1285
(NI16
tp1286
a(I01
I1
tp1287
asg32
Nsbsg33
I2
sg34
F18.0
sbs(g8
S'swing'
p1288
tp1289
g0
(g14
g2
Ntp1290
Rp1291
(dp1292
g18
F0.5
sg19
I19
sg20
g0
(g21
g22
(dp1293
I01
I1
sNI18
stp1294
Rp1295
(dp1296
g19
I19
sg27
Nsg28
(lp1297
(NI18
tp1298
a(I01
I1
tp1299
asg32
Nsbsg33
I2
sg34
F20.0
sbs(g9
S'day'
p1300
tp1301
g0
(g14
g2
Ntp1302
Rp1303
(dp1304
g18
F0.5
sg19
I17
sg20
g0
(g21
g22
(dp1305
I01
I1
sNI16
stp1306
Rp1307
(dp1308
g19
I17
sg27
Nsg28
(lp1309
(NI16
tp1310
a(I01
I1
tp1311
asg32
Nsbsg33
I2
sg34
F18.0
sbs(g9
S'had'
p1312
tp1313
g0
(g14
g2
Ntp1314
Rp1315
(dp1316
g18
F0.5
sg19
I17
sg20
g0
(g21
g22
(dp1317
NI17
stp1318
Rp1319
(dp1320
g19
I17
sg27
Nsg28
(lp1321
(NI17
tp1322
asg32
Nsbsg33
I2
sg34
F18.0
sbs(g8
g945
tp1323
g0
(g14
g2
Ntp1324
Rp1325
(dp1326
g18
F0.5
sg19
I19
sg20
g0
(g21
g22
(dp1327
I01
I1
sNI18
stp1328
Rp1329
(dp1330
g19
I19
sg27
Nsg28
(lp1331
(NI18
tp1332
a(I01
I1
tp1333
asg32
Nsbsg33
I2
sg34
F20.0
sbs(g9
S'just'
p1334
tp1335
g0
(g14
g2
Ntp1336
Rp1337
(dp1338
g18
F0.5
sg19
I17
sg20
g0
(g21
g22
(dp1339
I01
I2
sNI15
stp1340
Rp1341
(dp1342
g19
I17
sg27
Nsg28
(lp1343
(NI15
tp1344
a(I01
I2
tp1345
asg32
Nsbsg33
I2
sg34
F18.0
sbs(g8
S'society'
p1346
tp1347
g0
(g14
g2
Ntp1348
Rp1349
(dp1350
g18
F0.5
sg19
I19
sg20
g0
(g21
g22
(dp1351
NI19
stp1352
Rp1353
(dp1354
g19
I19
sg27
Nsg28
(lp1355
(NI19
tp1356
asg32
Nsbsg33
I2
sg34
F20.0
sbs(g9
S'today?'
p1357
tp1358
g0
(g14
g2
Ntp1359
Rp1360
(dp1361
g18
F0.5
sg19
I17
sg20
g0
(g21
g22
(dp1362
NI17
stp1363
Rp1364
(dp1365
g19
I17
sg27
Nsg28
(lp1366
(NI17
tp1367
asg32
Nsbsg33
I2
sg34
F18.0
sbs(g8
S'more'
p1368
tp1369
g0
(g14
g2
Ntp1370
Rp1371
(dp1372
g18
F0.5
sg19
I19
sg20
g0
(g21
g22
(dp1373
I01
I1
sNI18
stp1374
Rp1375
(dp1376
g19
I19
sg27
Nsg28
(lp1377
(NI18
tp1378
a(I01
I1
tp1379
asg32
Nsbsg33
I2
sg34
F20.0
sbs(g9
S'call'
p1380
tp1381
g0
(g14
g2
Ntp1382
Rp1383
(dp1384
g18
F0.5
sg19
I17
sg20
g0
(g21
g22
(dp1385
NI17
stp1386
Rp1387
(dp1388
g19
I17
sg27
Nsg28
(lp1389
(NI17
tp1390
asg32
Nsbsg33
I2
sg34
F18.0
sbs(g8
S'for'
p1391
tp1392
g0
(g14
g2
Ntp1393
Rp1394
(dp1395
g18
F0.5
sg19
I19
sg20
g0
(g21
g22
(dp1396
I01
I8
sNI11
stp1397
Rp1398
(dp1399
g19
I19
sg27
Nsg28
(lp1400
(NI11
tp1401
a(I01
I8
tp1402
asg32
Nsbsg33
I2
sg34
F20.0
sbs(g8
S'fancy'
p1403
tp1404
g0
(g14
g2
Ntp1405
Rp1406
(dp1407
g18
F0.5
sg19
I19
sg20
g0
(g21
g22
(dp1408
NI19
stp1409
Rp1410
(dp1411
g19
I19
sg27
Nsg28
(lp1412
(NI19
tp1413
asg32
Nsbsg33
I2
sg34
F20.0
sbs(g9
S'buy'
p1414
tp1415
g0
(g14
g2
Ntp1416
Rp1417
(dp1418
g18
F0.5
sg19
I17
sg20
g0
(g21
g22
(dp1419
NI17
stp1420
Rp1421
(dp1422
g19
I17
sg27
Nsg28
(lp1423
(NI17
tp1424
asg32
Nsbsg33
I2
sg34
F18.0
sbs(g8
S'family'
p1425
tp1426
g0
(g14
g2
Ntp1427
Rp1428
(dp1429
g18
F0.5
sg19
I19
sg20
g0
(g21
g22
(dp1430
I01
I1
sNI18
stp1431
Rp1432
(dp1433
g19
I19
sg27
Nsg28
(lp1434
(NI18
tp1435
a(I01
I1
tp1436
asg32
Nsbsg33
I2
sg34
F20.0
sbs(g9
g35
tp1437
g0
(g14
g2
Ntp1438
Rp1439
(dp1440
g18
F0.5
sg19
I17
sg20
g0
(g21
g22
(dp1441
I01
I1
sNI16
stp1442
Rp1443
(dp1444
g19
I17
sg27
Nsg28
(lp1445
(NI16
tp1446
a(I01
I1
tp1447
asg32
Nsbsg33
I2
sg34
F18.0
sbs(g8
g956
tp1448
g0
(g14
g2
Ntp1449
Rp1450
(dp1451
g18
F0.5
sg19
I19
sg20
g0
(g21
g22
(dp1452
I01
I1
sNI18
stp1453
Rp1454
(dp1455
g19
I19
sg27
Nsg28
(lp1456
(NI18
tp1457
a(I01
I1
tp1458
asg32
Nsbsg33
I2
sg34
F20.0
sbs(g9
g829
tp1459
g0
(g14
g2
Ntp1460
Rp1461
(dp1462
g18
F0.5
sg19
I17
sg20
g0
(g21
g22
(dp1463
I01
I1
sNI16
stp1464
Rp1465
(dp1466
g19
I17
sg27
Nsg28
(lp1467
(NI16
tp1468
a(I01
I1
tp1469
asg32
Nsbsg33
I2
sg34
F18.0
sbs(g8
S'prepared'
p1470
tp1471
g0
(g14
g2
Ntp1472
Rp1473
(dp1474
g18
F0.5
sg19
I19
sg20
g0
(g21
g22
(dp1475
I01
I1
sNI18
stp1476
Rp1477
(dp1478
g19
I19
sg27
Nsg28
(lp1479
(NI18
tp1480
a(I01
I1
tp1481
asg32
Nsbsg33
I2
sg34
F20.0
sbs(g8
S'was'
p1482
tp1483
g0
(g14
g2
Ntp1484
Rp1485
(dp1486
g18
F0.5
sg19
I19
sg20
g0
(g21
g22
(dp1487
I01
I1
sNI18
stp1488
Rp1489
(dp1490
g19
I19
sg27
Nsg28
(lp1491
(NI18
tp1492
a(I01
I1
tp1493
asg32
Nsbsg33
I2
sg34
F20.0
sbs(g9
S'things'
p1494
tp1495
g0
(g14
g2
Ntp1496
Rp1497
(dp1498
g18
F0.5
sg19
I17
sg20
g0
(g21
g22
(dp1499
NI17
stp1500
Rp1501
(dp1502
g19
I17
sg27
Nsg28
(lp1503
(NI17
tp1504
asg32
Nsbsg33
I2
sg34
F18.0
sbs(g8
S'fix'
p1505
tp1506
g0
(g14
g2
Ntp1507
Rp1508
(dp1509
g18
F0.5
sg19
I19
sg20
g0
(g21
g22
(dp1510
I01
I1
sNI18
stp1511
Rp1512
(dp1513
g19
I19
sg27
Nsg28
(lp1514
(NI18
tp1515
a(I01
I1
tp1516
asg32
Nsbsg33
I2
sg34
F20.0
sbs(g8
S'nature'
p1517
tp1518
g0
(g14
g2
Ntp1519
Rp1520
(dp1521
g18
F0.5
sg19
I19
sg20
g0
(g21
g22
(dp1522
I01
I1
sNI18
stp1523
Rp1524
(dp1525
g19
I19
sg27
Nsg28
(lp1526
(NI18
tp1527
a(I01
I1
tp1528
asg32
Nsbsg33
I2
sg34
F20.0
sbs(g9
S'sooo'
p1529
tp1530
g0
(g14
g2
Ntp1531
Rp1532
(dp1533
g18
F0.5
sg19
I17
sg20
g0
(g21
g22
(dp1534
I01
I1
sNI16
stp1535
Rp1536
(dp1537
g19
I17
sg27
Nsg28
(lp1538
(NI16
tp1539
a(I01
I1
tp1540
asg32
Nsbsg33
I2
sg34
F18.0
sbs(g8
S'creative'
p1541
tp1542
g0
(g14
g2
Ntp1543
Rp1544
(dp1545
g18
F0.5
sg19
I19
sg20
g0
(g21
g22
(dp1546
I01
I1
sNI18
stp1547
Rp1548
(dp1549
g19
I19
sg27
Nsg28
(lp1550
(NI18
tp1551
a(I01
I1
tp1552
asg32
Nsbsg33
I2
sg34
F20.0
sbs(g9
S'very'
p1553
tp1554
g0
(g14
g2
Ntp1555
Rp1556
(dp1557
g18
F0.5
sg19
I17
sg20
g0
(g21
g22
(dp1558
I01
I1
sNI16
stp1559
Rp1560
(dp1561
g19
I17
sg27
Nsg28
(lp1562
(NI16
tp1563
a(I01
I1
tp1564
asg32
Nsbsg33
I2
sg34
F18.0
sbs(g8
g12
tp1565
g0
(g14
g2
Ntp1566
Rp1567
(dp1568
g18
F0.5
sg19
I19
sg20
g0
(g21
g22
(dp1569
NI19
stp1570
Rp1571
(dp1572
g19
I19
sg27
Nsg28
(lp1573
(NI19
tp1574
asg32
Nsbsg33
I2
sg34
F20.0
sbs(g9
S'language'
p1575
tp1576
g0
(g14
g2
Ntp1577
Rp1578
(dp1579
g18
F0.5
sg19
I17
sg20
g0
(g21
g22
(dp1580
NI17
stp1581
Rp1582
(dp1583
g19
I17
sg27
Nsg28
(lp1584
(NI17
tp1585
asg32
Nsbsg33
I2
sg34
F18.0
sbs(g8
S'check'
p1586
tp1587
g0
(g14
g2
Ntp1588
Rp1589
(dp1590
g18
F0.5
sg19
I19
sg20
g0
(g21
g22
(dp1591
I01
I1
sNI18
stp1592
Rp1593
(dp1594
g19
I19
sg27
Nsg28
(lp1595
(NI18
tp1596
a(I01
I1
tp1597
asg32
Nsbsg33
I2
sg34
F20.0
sbs(g8
S'glee'
p1598
tp1599
g0
(g14
g2
Ntp1600
Rp1601
(dp1602
g18
F0.5
sg19
I19
sg20
g0
(g21
g22
(dp1603
I01
I1
sNI18
stp1604
Rp1605
(dp1606
g19
I19
sg27
Nsg28
(lp1607
(NI18
tp1608
a(I01
I1
tp1609
asg32
Nsbsg33
I2
sg34
F20.0
sbs(g8
S'say'
p1610
tp1611
g0
(g14
g2
Ntp1612
Rp1613
(dp1614
g18
F0.5
sg19
I19
sg20
g0
(g21
g22
(dp1615
I01
I1
sNI18
stp1616
Rp1617
(dp1618
g19
I19
sg27
Nsg28
(lp1619
(NI18
tp1620
a(I01
I1
tp1621
asg32
Nsbsg33
I2
sg34
F20.0
sbs(g9
S'somethin'
p1622
tp1623
g0
(g14
g2
Ntp1624
Rp1625
(dp1626
g18
F0.5
sg19
I17
sg20
g0
(g21
g22
(dp1627
NI17
stp1628
Rp1629
(dp1630
g19
I17
sg27
Nsg28
(lp1631
(NI17
tp1632
asg32
Nsbsg33
I2
sg34
F18.0
sbs(g8
S'are'
p1633
tp1634
g0
(g14
g2
Ntp1635
Rp1636
(dp1637
g18
F0.5
sg19
I19
sg20
g0
(g21
g22
(dp1638
NI19
stp1639
Rp1640
(dp1641
g19
I19
sg27
Nsg28
(lp1642
(NI19
tp1643
asg32
Nsbsg33
I2
sg34
F20.0
sbs(g8
g1035
tp1644
g0
(g14
g2
Ntp1645
Rp1646
(dp1647
g18
F0.5
sg19
I19
sg20
g0
(g21
g22
(dp1648
I01
I1
sNI18
stp1649
Rp1650
(dp1651
g19
I19
sg27
Nsg28
(lp1652
(NI18
tp1653
a(I01
I1
tp1654
asg32
Nsbsg33
I2
sg34
F20.0
sbs(g8
S'near'
p1655
tp1656
g0
(g14
g2
Ntp1657
Rp1658
(dp1659
g18
F0.5
sg19
I19
sg20
g0
(g21
g22
(dp1660
NI19
stp1661
Rp1662
(dp1663
g19
I19
sg27
Nsg28
(lp1664
(NI19
tp1665
asg32
Nsbsg33
I2
sg34
F20.0
sbs(g8
S'propfemale'
p1666
tp1667
g0
(g14
g2
Ntp1668
Rp1669
(dp1670
g18
F0.5
sg19
I19
sg20
g0
(g21
g22
(dp1671
I01
I3
sNI16
stp1672
Rp1673
(dp1674
g19
I19
sg27
Nsg28
(lp1675
(NI16
tp1676
a(I01
I3
tp1677
asg32
Nsbsg33
I2
sg34
F20.0
sbs(g8
S'serve'
p1678
tp1679
g0
(g14
g2
Ntp1680
Rp1681
(dp1682
g18
F0.5
sg19
I19
sg20
g0
(g21
g22
(dp1683
I01
I1
sNI18
stp1684
Rp1685
(dp1686
g19
I19
sg27
Nsg28
(lp1687
(NI18
tp1688
a(I01
I1
tp1689
asg32
Nsbsg33
I2
sg34
F20.0
sbs(g9
g1598
tp1690
g0
(g14
g2
Ntp1691
Rp1692
(dp1693
g18
F0.5
sg19
I17
sg20
g0
(g21
g22
(dp1694
NI17
stp1695
Rp1696
(dp1697
g19
I17
sg27
Nsg28
(lp1698
(NI17
tp1699
asg32
Nsbsg33
I2
sg34
F18.0
sbs(g8
S'cross'
p1700
tp1701
g0
(g14
g2
Ntp1702
Rp1703
(dp1704
g18
F0.5
sg19
I19
sg20
g0
(g21
g22
(dp1705
I01
I1
sNI18
stp1706
Rp1707
(dp1708
g19
I19
sg27
Nsg28
(lp1709
(NI18
tp1710
a(I01
I1
tp1711
asg32
Nsbsg33
I2
sg34
F20.0
sbs(g8
S'enjoying'
p1712
tp1713
g0
(g14
g2
Ntp1714
Rp1715
(dp1716
g18
F0.5
sg19
I19
sg20
g0
(g21
g22
(dp1717
NI19
stp1718
Rp1719
(dp1720
g19
I19
sg27
Nsg28
(lp1721
(NI19
tp1722
asg32
Nsbsg33
I2
sg34
F20.0
sbs(g8
S'you.'
p1723
tp1724
g0
(g14
g2
Ntp1725
Rp1726
(dp1727
g18
F0.5
sg19
I19
sg20
g0
(g21
g22
(dp1728
NI19
stp1729
Rp1730
(dp1731
g19
I19
sg27
Nsg28
(lp1732
(NI19
tp1733
asg32
Nsbsg33
I2
sg34
F20.0
sbs(g9
S'related'
p1734
tp1735
g0
(g14
g2
Ntp1736
Rp1737
(dp1738
g18
F0.5
sg19
I17
sg20
g0
(g21
g22
(dp1739
NI17
stp1740
Rp1741
(dp1742
g19
I17
sg27
Nsg28
(lp1743
(NI17
tp1744
asg32
Nsbsg33
I2
sg34
F18.0
sbs(g8
S'starting'
p1745
tp1746
g0
(g14
g2
Ntp1747
Rp1748
(dp1749
g18
F0.5
sg19
I19
sg20
g0
(g21
g22
(dp1750
NI19
stp1751
Rp1752
(dp1753
g19
I19
sg27
Nsg28
(lp1754
(NI19
tp1755
asg32
Nsbsg33
I2
sg34
F20.0
sbs(g8
S'over'
p1756
tp1757
g0
(g14
g2
Ntp1758
Rp1759
(dp1760
g18
F0.5
sg19
I19
sg20
g0
(g21
g22
(dp1761
NI19
stp1762
Rp1763
(dp1764
g19
I19
sg27
Nsg28
(lp1765
(NI19
tp1766
asg32
Nsbsg33
I2
sg34
F20.0
sbs(g9
S'get'
p1767
tp1768
g0
(g14
g2
Ntp1769
Rp1770
(dp1771
g18
F0.5
sg19
I17
sg20
g0
(g21
g22
(dp1772
I01
I1
sNI16
stp1773
Rp1774
(dp1775
g19
I17
sg27
Nsg28
(lp1776
(NI16
tp1777
a(I01
I1
tp1778
asg32
Nsbsg33
I2
sg34
F18.0
sbs(g9
S'much'
p1779
tp1780
g0
(g14
g2
Ntp1781
Rp1782
(dp1783
g18
F0.5
sg19
I17
sg20
g0
(g21
g22
(dp1784
I01
I1
sNI16
stp1785
Rp1786
(dp1787
g19
I17
sg27
Nsg28
(lp1788
(NI16
tp1789
a(I01
I1
tp1790
asg32
Nsbsg33
I2
sg34
F18.0
sbs(g9
g530
tp1791
g0
(g14
g2
Ntp1792
Rp1793
(dp1794
g18
F0.5
sg19
I17
sg20
g0
(g21
g22
(dp1795
I01
I1
sNI16
stp1796
Rp1797
(dp1798
g19
I17
sg27
Nsg28
(lp1799
(NI16
tp1800
a(I01
I1
tp1801
asg32
Nsbsg33
I2
sg34
F18.0
sbs(g9
S'before'
p1802
tp1803
g0
(g14
g2
Ntp1804
Rp1805
(dp1806
g18
F0.5
sg19
I17
sg20
g0
(g21
g22
(dp1807
NI17
stp1808
Rp1809
(dp1810
g19
I17
sg27
Nsg28
(lp1811
(NI17
tp1812
asg32
Nsbsg33
I2
sg34
F18.0
sbs(g8
S'<x>'
p1813
tp1814
g0
(g14
g2
Ntp1815
Rp1816
(dp1817
g18
F0.5
sg19
I19
sg20
g0
(g21
g22
(dp1818
I01
I15
sNI4
stp1819
Rp1820
(dp1821
g19
I19
sg27
Nsg28
(lp1822
(I01
I15
tp1823
a(NI4
tp1824
asg32
Nsbsg33
I2
sg34
F20.0
sbs(g9
S'who'
p1825
tp1826
g0
(g14
g2
Ntp1827
Rp1828
(dp1829
g18
F0.5
sg19
I17
sg20
g0
(g21
g22
(dp1830
I01
I1
sNI16
stp1831
Rp1832
(dp1833
g19
I17
sg27
Nsg28
(lp1834
(NI16
tp1835
a(I01
I1
tp1836
asg32
Nsbsg33
I2
sg34
F18.0
sbs(g8
S'week'
p1837
tp1838
g0
(g14
g2
Ntp1839
Rp1840
(dp1841
g18
F0.5
sg19
I19
sg20
g0
(g21
g22
(dp1842
NI19
stp1843
Rp1844
(dp1845
g19
I19
sg27
Nsg28
(lp1846
(NI19
tp1847
asg32
Nsbsg33
I2
sg34
F20.0
sbs(g9
S'sky'
p1848
tp1849
g0
(g14
g2
Ntp1850
Rp1851
(dp1852
g18
F0.5
sg19
I17
sg20
g0
(g21
g22
(dp1853
I01
I1
sNI16
stp1854
Rp1855
(dp1856
g19
I17
sg27
Nsg28
(lp1857
(NI16
tp1858
a(I01
I1
tp1859
asg32
Nsbsg33
I2
sg34
F18.0
sbs(g8
g426
tp1860
g0
(g14
g2
Ntp1861
Rp1862
(dp1863
g18
F0.5
sg19
I19
sg20
g0
(g21
g22
(dp1864
I01
I1
sNI18
stp1865
Rp1866
(dp1867
g19
I19
sg27
Nsg28
(lp1868
(NI18
tp1869
a(I01
I1
tp1870
asg32
Nsbsg33
I2
sg34
F20.0
sbs(g8
S'best'
p1871
tp1872
g0
(g14
g2
Ntp1873
Rp1874
(dp1875
g18
F0.5
sg19
I19
sg20
g0
(g21
g22
(dp1876
I01
I1
sNI18
stp1877
Rp1878
(dp1879
g19
I19
sg27
Nsg28
(lp1880
(NI18
tp1881
a(I01
I1
tp1882
asg32
Nsbsg33
I2
sg34
F20.0
sbs(g9
g1871
tp1883
g0
(g14
g2
Ntp1884
Rp1885
(dp1886
g18
F0.5
sg19
I17
sg20
g0
(g21
g22
(dp1887
NI17
stp1888
Rp1889
(dp1890
g19
I17
sg27
Nsg28
(lp1891
(NI17
tp1892
asg32
Nsbsg33
I2
sg34
F18.0
sbs(g9
S'so'
p1893
tp1894
g0
(g14
g2
Ntp1895
Rp1896
(dp1897
g18
F0.5
sg19
I17
sg20
g0
(g21
g22
(dp1898
NI17
stp1899
Rp1900
(dp1901
g19
I17
sg27
Nsg28
(lp1902
(NI17
tp1903
asg32
Nsbsg33
I2
sg34
F18.0
sbs(g9
g324
tp1904
g0
(g14
g2
Ntp1905
Rp1906
(dp1907
g18
F0.5
sg19
I17
sg20
g0
(g21
g22
(dp1908
NI17
stp1909
Rp1910
(dp1911
g19
I17
sg27
Nsg28
(lp1912
(NI17
tp1913
asg32
Nsbsg33
I2
sg34
F18.0
sbs(g9
S'saint'
p1914
tp1915
g0
(g14
g2
Ntp1916
Rp1917
(dp1918
g18
F0.5
sg19
I17
sg20
g0
(g21
g22
(dp1919
I01
I1
sNI16
stp1920
Rp1921
(dp1922
g19
I17
sg27
Nsg28
(lp1923
(NI16
tp1924
a(I01
I1
tp1925
asg32
Nsbsg33
I2
sg34
F18.0
sbs(g9
S'more'
p1926
tp1927
g0
(g14
g2
Ntp1928
Rp1929
(dp1930
g18
F0.5
sg19
I17
sg20
g0
(g21
g22
(dp1931
I01
I3
sNI14
stp1932
Rp1933
(dp1934
g19
I17
sg27
Nsg28
(lp1935
(NI14
tp1936
a(I01
I3
tp1937
asg32
Nsbsg33
I2
sg34
F18.0
sbs(g9
S'posting'
p1938
tp1939
g0
(g14
g2
Ntp1940
Rp1941
(dp1942
g18
F0.5
sg19
I17
sg20
g0
(g21
g22
(dp1943
I01
I1
sNI16
stp1944
Rp1945
(dp1946
g19
I17
sg27
Nsg28
(lp1947
(NI16
tp1948
a(I01
I1
tp1949
asg32
Nsbsg33
I2
sg34
F18.0
sbs(g9
S'makes'
p1950
tp1951
g0
(g14
g2
Ntp1952
Rp1953
(dp1954
g18
F0.5
sg19
I17
sg20
g0
(g21
g22
(dp1955
I01
I1
sNI16
stp1956
Rp1957
(dp1958
g19
I17
sg27
Nsg28
(lp1959
(NI16
tp1960
a(I01
I1
tp1961
asg32
Nsbsg33
I2
sg34
F18.0
sbs(g9
g563
tp1962
g0
(g14
g2
Ntp1963
Rp1964
(dp1965
g18
F0.5
sg19
I17
sg20
g0
(g21
g22
(dp1966
I01
I1
sNI16
stp1967
Rp1968
(dp1969
g19
I17
sg27
Nsg28
(lp1970
(NI16
tp1971
a(I01
I1
tp1972
asg32
Nsbsg33
I2
sg34
F18.0
sbs(g9
S'texas'
p1973
tp1974
g0
(g14
g2
Ntp1975
Rp1976
(dp1977
g18
F0.5
sg19
I17
sg20
g0
(g21
g22
(dp1978
I01
I1
sNI16
stp1979
Rp1980
(dp1981
g19
I17
sg27
Nsg28
(lp1982
(NI16
tp1983
a(I01
I1
tp1984
asg32
Nsbsg33
I2
sg34
F18.0
sbs(g8
g747
tp1985
g0
(g14
g2
Ntp1986
Rp1987
(dp1988
g18
F0.5
sg19
I19
sg20
g0
(g21
g22
(dp1989
NI19
stp1990
Rp1991
(dp1992
g19
I19
sg27
Nsg28
(lp1993
(NI19
tp1994
asg32
Nsbsg33
I2
sg34
F20.0
sbs(g8
S'music'
p1995
tp1996
g0
(g14
g2
Ntp1997
Rp1998
(dp1999
g18
F0.5
sg19
I19
sg20
g0
(g21
g22
(dp2000
NI19
stp2001
Rp2002
(dp2003
g19
I19
sg27
Nsg28
(lp2004
(NI19
tp2005
asg32
Nsbsg33
I2
sg34
F20.0
sbs(g8
S'an'
p2006
tp2007
g0
(g14
g2
Ntp2008
Rp2009
(dp2010
g18
F0.5
sg19
I19
sg20
g0
(g21
g22
(dp2011
I01
I1
sNI18
stp2012
Rp2013
(dp2014
g19
I19
sg27
Nsg28
(lp2015
(NI18
tp2016
a(I01
I1
tp2017
asg32
Nsbsg33
I2
sg34
F20.0
sbs(g8
S'looking'
p2018
tp2019
g0
(g14
g2
Ntp2020
Rp2021
(dp2022
g18
F0.5
sg19
I19
sg20
g0
(g21
g22
(dp2023
NI19
stp2024
Rp2025
(dp2026
g19
I19
sg27
Nsg28
(lp2027
(NI19
tp2028
asg32
Nsbsg33
I2
sg34
F20.0
sbs(g9
g678
tp2029
g0
(g14
g2
Ntp2030
Rp2031
(dp2032
g18
F0.5
sg19
I17
sg20
g0
(g21
g22
(dp2033
I01
I2
sNI15
stp2034
Rp2035
(dp2036
g19
I17
sg27
Nsg28
(lp2037
(NI15
tp2038
a(I01
I2
tp2039
asg32
Nsbsg33
I2
sg34
F18.0
sbs(g8
g644
tp2040
g0
(g14
g2
Ntp2041
Rp2042
(dp2043
g18
F0.5
sg19
I19
sg20
g0
(g21
g22
(dp2044
NI19
stp2045
Rp2046
(dp2047
g19
I19
sg27
Nsg28
(lp2048
(NI19
tp2049
asg32
Nsbsg33
I2
sg34
F20.0
sbs(g8
g1938
tp2050
g0
(g14
g2
Ntp2051
Rp2052
(dp2053
g18
F0.5
sg19
I19
sg20
g0
(g21
g22
(dp2054
NI19
stp2055
Rp2056
(dp2057
g19
I19
sg27
Nsg28
(lp2058
(NI19
tp2059
asg32
Nsbsg33
I2
sg34
F20.0
sbs(g8
S'cheese'
p2060
tp2061
g0
(g14
g2
Ntp2062
Rp2063
(dp2064
g18
F0.5
sg19
I19
sg20
g0
(g21
g22
(dp2065
I01
I1
sNI18
stp2066
Rp2067
(dp2068
g19
I19
sg27
Nsg28
(lp2069
(NI18
tp2070
a(I01
I1
tp2071
asg32
Nsbsg33
I2
sg34
F20.0
sbs(g8
S'a'
p2072
tp2073
g0
(g14
g2
Ntp2074
Rp2075
(dp2076
g18
F0.5
sg19
I19
sg20
g0
(g21
g22
(dp2077
I01
I3
sNI16
stp2078
Rp2079
(dp2080
g19
I19
sg27
Nsg28
(lp2081
(NI16
tp2082
a(I01
I3
tp2083
asg32
Nsbsg33
I2
sg34
F20.0
sbs(g8
S'design'
p2084
tp2085
g0
(g14
g2
Ntp2086
Rp2087
(dp2088
g18
F0.5
sg19
I19
sg20
g0
(g21
g22
(dp2089
I01
I1
sNI18
stp2090
Rp2091
(dp2092
g19
I19
sg27
Nsg28
(lp2093
(NI18
tp2094
a(I01
I1
tp2095
asg32
Nsbsg33
I2
sg34
F20.0
sbs(g9
g69
tp2096
g0
(g14
g2
Ntp2097
Rp2098
(dp2099
g18
F0.5
sg19
I17
sg20
g0
(g21
g22
(dp2100
I01
I1
sNI16
stp2101
Rp2102
(dp2103
g19
I17
sg27
Nsg28
(lp2104
(NI16
tp2105
a(I01
I1
tp2106
asg32
Nsbsg33
I2
sg34
F18.0
sbs(g9
S'the'
p2107
tp2108
g0
(g14
g2
Ntp2109
Rp2110
(dp2111
g18
F0.5
sg19
I17
sg20
g0
(g21
g22
(dp2112
I01
I8
sNI9
stp2113
Rp2114
(dp2115
g19
I17
sg27
Nsg28
(lp2116
(NI9
tp2117
a(I01
I8
tp2118
asg32
Nsbsg33
I2
sg34
F18.0
sbs(g8
S'movie'
p2119
tp2120
g0
(g14
g2
Ntp2121
Rp2122
(dp2123
g18
F0.5
sg19
I19
sg20
g0
(g21
g22
(dp2124
NI19
stp2125
Rp2126
(dp2127
g19
I19
sg27
Nsg28
(lp2128
(NI19
tp2129
asg32
Nsbsg33
I2
sg34
F20.0
sbs(g9
g104
tp2130
g0
(g14
g2
Ntp2131
Rp2132
(dp2133
g18
F0.5
sg19
I17
sg20
g0
(g21
g22
(dp2134
NI17
stp2135
Rp2136
(dp2137
g19
I17
sg27
Nsg28
(lp2138
(NI17
tp2139
asg32
Nsbsg33
I2
sg34
F18.0
sbs(g9
S"'"
p2140
tp2141
g0
(g14
g2
Ntp2142
Rp2143
(dp2144
g18
F0.5
sg19
I17
sg20
g0
(g21
g22
(dp2145
I01
I1
sNI16
stp2146
Rp2147
(dp2148
g19
I17
sg27
Nsg28
(lp2149
(NI16
tp2150
a(I01
I1
tp2151
asg32
Nsbsg33
I2
sg34
F18.0
sbs(g8
g1219
tp2152
g0
(g14
g2
Ntp2153
Rp2154
(dp2155
g18
F0.5
sg19
I19
sg20
g0
(g21
g22
(dp2156
NI19
stp2157
Rp2158
(dp2159
g19
I19
sg27
Nsg28
(lp2160
(NI19
tp2161
asg32
Nsbsg33
I2
sg34
F20.0
sbs(g9
g1610
tp2162
g0
(g14
g2
Ntp2163
Rp2164
(dp2165
g18
F0.5
sg19
I17
sg20
g0
(g21
g22
(dp2166
NI17
stp2167
Rp2168
(dp2169
g19
I17
sg27
Nsg28
(lp2170
(NI17
tp2171
asg32
Nsbsg33
I2
sg34
F18.0
sbs(g9
S'\\'
p2172
tp2173
g0
(g14
g2
Ntp2174
Rp2175
(dp2176
g18
F0.5
sg19
I17
sg20
g0
(g21
g22
(dp2177
NI17
stp2178
Rp2179
(dp2180
g19
I17
sg27
Nsg28
(lp2181
(NI17
tp2182
asg32
Nsbsg33
I2
sg34
F18.0
sbs(g9
g771
tp2183
g0
(g14
g2
Ntp2184
Rp2185
(dp2186
g18
F0.5
sg19
I17
sg20
g0
(g21
g22
(dp2187
NI17
stp2188
Rp2189
(dp2190
g19
I17
sg27
Nsg28
(lp2191
(NI17
tp2192
asg32
Nsbsg33
I2
sg34
F18.0
sbs(g9
S'posts'
p2193
tp2194
g0
(g14
g2
Ntp2195
Rp2196
(dp2197
g18
F0.5
sg19
I17
sg20
g0
(g21
g22
(dp2198
I01
I1
sNI16
stp2199
Rp2200
(dp2201
g19
I17
sg27
Nsg28
(lp2202
(NI16
tp2203
a(I01
I1
tp2204
asg32
Nsbsg33
I2
sg34
F18.0
sbs(g9
S'<CAPS>'
p2205
tp2206
g0
(g14
g2
Ntp2207
Rp2208
(dp2209
g18
F0.5
sg19
I17
sg20
g0
(g21
g22
(dp2210
I01
I4
sNI13
stp2211
Rp2212
(dp2213
g19
I17
sg27
Nsg28
(lp2214
(NI13
tp2215
a(I01
I4
tp2216
asg32
Nsbsg33
I2
sg34
F18.0
sbs(g8
S'wicked'
p2217
tp2218
g0
(g14
g2
Ntp2219
Rp2220
(dp2221
g18
F0.5
sg19
I19
sg20
g0
(g21
g22
(dp2222
I01
I1
sNI18
stp2223
Rp2224
(dp2225
g19
I19
sg27
Nsg28
(lp2226
(NI18
tp2227
a(I01
I1
tp2228
asg32
Nsbsg33
I2
sg34
F20.0
sbs(g8
S'gods'
p2229
tp2230
g0
(g14
g2
Ntp2231
Rp2232
(dp2233
g18
F0.5
sg19
I19
sg20
g0
(g21
g22
(dp2234
I01
I2
sNI17
stp2235
Rp2236
(dp2237
g19
I19
sg27
Nsg28
(lp2238
(NI17
tp2239
a(I01
I2
tp2240
asg32
Nsbsg33
I2
sg34
F20.0
sbs(g8
g220
tp2241
g0
(g14
g2
Ntp2242
Rp2243
(dp2244
g18
F0.5
sg19
I19
sg20
g0
(g21
g22
(dp2245
NI19
stp2246
Rp2247
(dp2248
g19
I19
sg27
Nsg28
(lp2249
(NI19
tp2250
asg32
Nsbsg33
I2
sg34
F20.0
sbs(g9
g484
tp2251
g0
(g14
g2
Ntp2252
Rp2253
(dp2254
g18
F0.5
sg19
I17
sg20
g0
(g21
g22
(dp2255
I01
I1
sNI16
stp2256
Rp2257
(dp2258
g19
I17
sg27
Nsg28
(lp2259
(NI16
tp2260
a(I01
I1
tp2261
asg32
Nsbsg33
I2
sg34
F18.0
sbs(g9
S'>'
p2262
tp2263
g0
(g14
g2
Ntp2264
Rp2265
(dp2266
g18
F0.5
sg19
I17
sg20
g0
(g21
g22
(dp2267
I01
I4
sNI13
stp2268
Rp2269
(dp2270
g19
I17
sg27
Nsg28
(lp2271
(NI13
tp2272
a(I01
I4
tp2273
asg32
Nsbsg33
I2
sg34
F18.0
sbs(g9
S'is'
p2274
tp2275
g0
(g14
g2
Ntp2276
Rp2277
(dp2278
g18
F0.5
sg19
I17
sg20
g0
(g21
g22
(dp2279
I01
I12
sNI5
stp2280
Rp2281
(dp2282
g19
I17
sg27
Nsg28
(lp2283
(I01
I12
tp2284
a(NI5
tp2285
asg32
Nsbsg33
I2
sg34
F18.0
sbs(g8
S'surprise'
p2286
tp2287
g0
(g14
g2
Ntp2288
Rp2289
(dp2290
g18
F0.5
sg19
I19
sg20
g0
(g21
g22
(dp2291
NI19
stp2292
Rp2293
(dp2294
g19
I19
sg27
Nsg28
(lp2295
(NI19
tp2296
asg32
Nsbsg33
I2
sg34
F20.0
sbs(g9
g1723
tp2297
g0
(g14
g2
Ntp2298
Rp2299
(dp2300
g18
F0.5
sg19
I17
sg20
g0
(g21
g22
(dp2301
I01
I2
sNI15
stp2302
Rp2303
(dp2304
g19
I17
sg27
Nsg28
(lp2305
(NI15
tp2306
a(I01
I2
tp2307
asg32
Nsbsg33
I2
sg34
F18.0
sbs(g8
S'24'
p2308
tp2309
g0
(g14
g2
Ntp2310
Rp2311
(dp2312
g18
F0.5
sg19
I19
sg20
g0
(g21
g22
(dp2313
NI19
stp2314
Rp2315
(dp2316
g19
I19
sg27
Nsg28
(lp2317
(NI19
tp2318
asg32
Nsbsg33
I2
sg34
F20.0
sbs(g8
g174
tp2319
g0
(g14
g2
Ntp2320
Rp2321
(dp2322
g18
F0.5
sg19
I19
sg20
g0
(g21
g22
(dp2323
I01
I1
sNI18
stp2324
Rp2325
(dp2326
g19
I19
sg27
Nsg28
(lp2327
(NI18
tp2328
a(I01
I1
tp2329
asg32
Nsbsg33
I2
sg34
F20.0
sbs(g8
S'another'
p2330
tp2331
g0
(g14
g2
Ntp2332
Rp2333
(dp2334
g18
F0.5
sg19
I19
sg20
g0
(g21
g22
(dp2335
I01
I1
sNI18
stp2336
Rp2337
(dp2338
g19
I19
sg27
Nsg28
(lp2339
(NI18
tp2340
a(I01
I1
tp2341
asg32
Nsbsg33
I2
sg34
F20.0
sbs(g8
S'friends.'
p2342
tp2343
g0
(g14
g2
Ntp2344
Rp2345
(dp2346
g18
F0.5
sg19
I19
sg20
g0
(g21
g22
(dp2347
I01
I1
sNI18
stp2348
Rp2349
(dp2350
g19
I19
sg27
Nsg28
(lp2351
(NI18
tp2352
a(I01
I1
tp2353
asg32
Nsbsg33
I2
sg34
F20.0
sbs(g9
S'without'
p2354
tp2355
g0
(g14
g2
Ntp2356
Rp2357
(dp2358
g18
F0.5
sg19
I17
sg20
g0
(g21
g22
(dp2359
I01
I1
sNI16
stp2360
Rp2361
(dp2362
g19
I17
sg27
Nsg28
(lp2363
(NI16
tp2364
a(I01
I1
tp2365
asg32
Nsbsg33
I2
sg34
F18.0
sbs(g9
S'they'
p2366
tp2367
g0
(g14
g2
Ntp2368
Rp2369
(dp2370
g18
F0.5
sg19
I17
sg20
g0
(g21
g22
(dp2371
I01
I1
sNI16
stp2372
Rp2373
(dp2374
g19
I17
sg27
Nsg28
(lp2375
(NI16
tp2376
a(I01
I1
tp2377
asg32
Nsbsg33
I2
sg34
F18.0
sbs(g8
S'on'
p2378
tp2379
g0
(g14
g2
Ntp2380
Rp2381
(dp2382
g18
F0.5
sg19
I19
sg20
g0
(g21
g22
(dp2383
I01
I2
sNI17
stp2384
Rp2385
(dp2386
g19
I19
sg27
Nsg28
(lp2387
(NI17
tp2388
a(I01
I2
tp2389
asg32
Nsbsg33
I2
sg34
F20.0
sbs(g9
g2286
tp2390
g0
(g14
g2
Ntp2391
Rp2392
(dp2393
g18
F0.5
sg19
I17
sg20
g0
(g21
g22
(dp2394
I01
I1
sNI16
stp2395
Rp2396
(dp2397
g19
I17
sg27
Nsg28
(lp2398
(NI16
tp2399
a(I01
I1
tp2400
asg32
Nsbsg33
I2
sg34
F18.0
sbs(g9
S'miss'
p2401
tp2402
g0
(g14
g2
Ntp2403
Rp2404
(dp2405
g18
F0.5
sg19
I17
sg20
g0
(g21
g22
(dp2406
I01
I2
sNI15
stp2407
Rp2408
(dp2409
g19
I17
sg27
Nsg28
(lp2410
(NI15
tp2411
a(I01
I2
tp2412
asg32
Nsbsg33
I2
sg34
F18.0
sbs(g9
S'author'
p2413
tp2414
g0
(g14
g2
Ntp2415
Rp2416
(dp2417
g18
F0.5
sg19
I17
sg20
g0
(g21
g22
(dp2418
I01
I1
sNI16
stp2419
Rp2420
(dp2421
g19
I17
sg27
Nsg28
(lp2422
(NI16
tp2423
a(I01
I1
tp2424
asg32
Nsbsg33
I2
sg34
F18.0
sbs(g9
g472
tp2425
g0
(g14
g2
Ntp2426
Rp2427
(dp2428
g18
F0.5
sg19
I17
sg20
g0
(g21
g22
(dp2429
NI17
stp2430
Rp2431
(dp2432
g19
I17
sg27
Nsg28
(lp2433
(NI17
tp2434
asg32
Nsbsg33
I2
sg34
F18.0
sbs(g9
g1756
tp2435
g0
(g14
g2
Ntp2436
Rp2437
(dp2438
g18
F0.5
sg19
I17
sg20
g0
(g21
g22
(dp2439
I01
I1
sNI16
stp2440
Rp2441
(dp2442
g19
I17
sg27
Nsg28
(lp2443
(NI16
tp2444
a(I01
I1
tp2445
asg32
Nsbsg33
I2
sg34
F18.0
sbs(g9
S'info'
p2446
tp2447
g0
(g14
g2
Ntp2448
Rp2449
(dp2450
g18
F0.5
sg19
I17
sg20
g0
(g21
g22
(dp2451
NI17
stp2452
Rp2453
(dp2454
g19
I17
sg27
Nsg28
(lp2455
(NI17
tp2456
asg32
Nsbsg33
I2
sg34
F18.0
sbs(g8
g2446
tp2457
g0
(g14
g2
Ntp2458
Rp2459
(dp2460
g18
F0.5
sg19
I19
sg20
g0
(g21
g22
(dp2461
I01
I1
sNI18
stp2462
Rp2463
(dp2464
g19
I19
sg27
Nsg28
(lp2465
(NI18
tp2466
a(I01
I1
tp2467
asg32
Nsbsg33
I2
sg34
F20.0
sbs(g9
S'what'
p2468
tp2469
g0
(g14
g2
Ntp2470
Rp2471
(dp2472
g18
F0.5
sg19
I17
sg20
g0
(g21
g22
(dp2473
NI17
stp2474
Rp2475
(dp2476
g19
I17
sg27
Nsg28
(lp2477
(NI17
tp2478
asg32
Nsbsg33
I2
sg34
F18.0
sbs(g9
S'yard'
p2479
tp2480
g0
(g14
g2
Ntp2481
Rp2482
(dp2483
g18
F0.5
sg19
I17
sg20
g0
(g21
g22
(dp2484
I01
I1
sNI16
stp2485
Rp2486
(dp2487
g19
I17
sg27
Nsg28
(lp2488
(NI16
tp2489
a(I01
I1
tp2490
asg32
Nsbsg33
I2
sg34
F18.0
sbs(g8
g899
tp2491
g0
(g14
g2
Ntp2492
Rp2493
(dp2494
g18
F0.5
sg19
I19
sg20
g0
(g21
g22
(dp2495
NI19
stp2496
Rp2497
(dp2498
g19
I19
sg27
Nsg28
(lp2499
(NI19
tp2500
asg32
Nsbsg33
I2
sg34
F20.0
sbs(g8
S'words'
p2501
tp2502
g0
(g14
g2
Ntp2503
Rp2504
(dp2505
g18
F0.5
sg19
I19
sg20
g0
(g21
g22
(dp2506
I01
I1
sNI18
stp2507
Rp2508
(dp2509
g19
I19
sg27
Nsg28
(lp2510
(NI18
tp2511
a(I01
I1
tp2512
asg32
Nsbsg33
I2
sg34
F20.0
sbs(g8
g1950
tp2513
g0
(g14
g2
Ntp2514
Rp2515
(dp2516
g18
F0.5
sg19
I19
sg20
g0
(g21
g22
(dp2517
NI19
stp2518
Rp2519
(dp2520
g19
I19
sg27
Nsg28
(lp2521
(NI19
tp2522
asg32
Nsbsg33
I2
sg34
F20.0
sbs(g8
S'tonight'
p2523
tp2524
g0
(g14
g2
Ntp2525
Rp2526
(dp2527
g18
F0.5
sg19
I19
sg20
g0
(g21
g22
(dp2528
I01
I1
sNI18
stp2529
Rp2530
(dp2531
g19
I19
sg27
Nsg28
(lp2532
(NI18
tp2533
a(I01
I1
tp2534
asg32
Nsbsg33
I2
sg34
F20.0
sbs(g9
S'that'
p2535
tp2536
g0
(g14
g2
Ntp2537
Rp2538
(dp2539
g18
F0.5
sg19
I17
sg20
g0
(g21
g22
(dp2540
I01
I3
sNI14
stp2541
Rp2542
(dp2543
g19
I17
sg27
Nsg28
(lp2544
(NI14
tp2545
a(I01
I3
tp2546
asg32
Nsbsg33
I2
sg34
F18.0
sbs(g9
S'south'
p2547
tp2548
g0
(g14
g2
Ntp2549
Rp2550
(dp2551
g18
F0.5
sg19
I17
sg20
g0
(g21
g22
(dp2552
I01
I1
sNI16
stp2553
Rp2554
(dp2555
g19
I17
sg27
Nsg28
(lp2556
(NI16
tp2557
a(I01
I1
tp2558
asg32
Nsbsg33
I2
sg34
F18.0
sbs(g9
S'city'
p2559
tp2560
g0
(g14
g2
Ntp2561
Rp2562
(dp2563
g18
F0.5
sg19
I17
sg20
g0
(g21
g22
(dp2564
NI17
stp2565
Rp2566
(dp2567
g19
I17
sg27
Nsg28
(lp2568
(NI17
tp2569
asg32
Nsbsg33
I2
sg34
F18.0
sbs(g8
g2559
tp2570
g0
(g14
g2
Ntp2571
Rp2572
(dp2573
g18
F0.5
sg19
I19
sg20
g0
(g21
g22
(dp2574
I01
I1
sNI18
stp2575
Rp2576
(dp2577
g19
I19
sg27
Nsg28
(lp2578
(NI18
tp2579
a(I01
I1
tp2580
asg32
Nsbsg33
I2
sg34
F20.0
sbs(g8
g1893
tp2581
g0
(g14
g2
Ntp2582
Rp2583
(dp2584
g18
F0.5
sg19
I19
sg20
g0
(g21
g22
(dp2585
I01
I1
sNI18
stp2586
Rp2587
(dp2588
g19
I19
sg27
Nsg28
(lp2589
(NI18
tp2590
a(I01
I1
tp2591
asg32
Nsbsg33
I2
sg34
F20.0
sbs(g8
S'lovin'
p2592
tp2593
g0
(g14
g2
Ntp2594
Rp2595
(dp2596
g18
F0.5
sg19
I19
sg20
g0
(g21
g22
(dp2597
NI19
stp2598
Rp2599
(dp2600
g19
I19
sg27
Nsg28
(lp2601
(NI19
tp2602
asg32
Nsbsg33
I2
sg34
F20.0
sbs(g8
S'will'
p2603
tp2604
g0
(g14
g2
Ntp2605
Rp2606
(dp2607
g18
F0.5
sg19
I19
sg20
g0
(g21
g22
(dp2608
NI19
stp2609
Rp2610
(dp2611
g19
I19
sg27
Nsg28
(lp2612
(NI19
tp2613
asg32
Nsbsg33
I2
sg34
F20.0
sbs(g8
g1825
tp2614
g0
(g14
g2
Ntp2615
Rp2616
(dp2617
g18
F0.5
sg19
I19
sg20
g0
(g21
g22
(dp2618
NI19
stp2619
Rp2620
(dp2621
g19
I19
sg27
Nsg28
(lp2622
(NI19
tp2623
asg32
Nsbsg33
I2
sg34
F20.0
sbs(g8
S'month?!'
p2624
tp2625
g0
(g14
g2
Ntp2626
Rp2627
(dp2628
g18
F0.5
sg19
I19
sg20
g0
(g21
g22
(dp2629
I01
I1
sNI18
stp2630
Rp2631
(dp2632
g19
I19
sg27
Nsg28
(lp2633
(NI18
tp2634
a(I01
I1
tp2635
asg32
Nsbsg33
I2
sg34
F20.0
sbs(g8
S'some'
p2636
tp2637
g0
(g14
g2
Ntp2638
Rp2639
(dp2640
g18
F0.5
sg19
I19
sg20
g0
(g21
g22
(dp2641
NI19
stp2642
Rp2643
(dp2644
g19
I19
sg27
Nsg28
(lp2645
(NI19
tp2646
asg32
Nsbsg33
I2
sg34
F20.0
sbs(g8
S'sale'
p2647
tp2648
g0
(g14
g2
Ntp2649
Rp2650
(dp2651
g18
F0.5
sg19
I19
sg20
g0
(g21
g22
(dp2652
NI19
stp2653
Rp2654
(dp2655
g19
I19
sg27
Nsg28
(lp2656
(NI19
tp2657
asg32
Nsbsg33
I2
sg34
F20.0
sbs(g8
S'!'
p2658
tp2659
g0
(g14
g2
Ntp2660
Rp2661
(dp2662
g18
F0.5
sg19
I19
sg20
g0
(g21
g22
(dp2663
I01
I1
sNI18
stp2664
Rp2665
(dp2666
g19
I19
sg27
Nsg28
(lp2667
(NI18
tp2668
a(I01
I1
tp2669
asg32
Nsbsg33
I2
sg34
F20.0
sbs(g8
g736
tp2670
g0
(g14
g2
Ntp2671
Rp2672
(dp2673
g18
F0.5
sg19
I19
sg20
g0
(g21
g22
(dp2674
I01
I1
sNI18
stp2675
Rp2676
(dp2677
g19
I19
sg27
Nsg28
(lp2678
(NI18
tp2679
a(I01
I1
tp2680
asg32
Nsbsg33
I2
sg34
F20.0
sbs(g9
S'from'
p2681
tp2682
g0
(g14
g2
Ntp2683
Rp2684
(dp2685
g18
F0.5
sg19
I17
sg20
g0
(g21
g22
(dp2686
I01
I3
sNI14
stp2687
Rp2688
(dp2689
g19
I17
sg27
Nsg28
(lp2690
(NI14
tp2691
a(I01
I3
tp2692
asg32
Nsbsg33
I2
sg34
F18.0
sbs(g9
g1745
tp2693
g0
(g14
g2
Ntp2694
Rp2695
(dp2696
g18
F0.5
sg19
I17
sg20
g0
(g21
g22
(dp2697
I01
I1
sNI16
stp2698
Rp2699
(dp2700
g19
I17
sg27
Nsg28
(lp2701
(NI16
tp2702
a(I01
I1
tp2703
asg32
Nsbsg33
I2
sg34
F18.0
sbs(g9
S'give'
p2704
tp2705
g0
(g14
g2
Ntp2706
Rp2707
(dp2708
g18
F0.5
sg19
I17
sg20
g0
(g21
g22
(dp2709
NI17
stp2710
Rp2711
(dp2712
g19
I17
sg27
Nsg28
(lp2713
(NI17
tp2714
asg32
Nsbsg33
I2
sg34
F18.0
sbs(g8
S'propfirst'
p2715
tp2716
g0
(g14
g2
Ntp2717
Rp2718
(dp2719
g18
F0.5
sg19
I19
sg20
g0
(g21
g22
(dp2720
I01
I1
sNI18
stp2721
Rp2722
(dp2723
g19
I19
sg27
Nsg28
(lp2724
(NI18
tp2725
a(I01
I1
tp2726
asg32
Nsbsg33
I2
sg34
F20.0
sbs(g9
S'its'
p2727
tp2728
g0
(g14
g2
Ntp2729
Rp2730
(dp2731
g18
F0.5
sg19
I17
sg20
g0
(g21
g22
(dp2732
NI17
stp2733
Rp2734
(dp2735
g19
I17
sg27
Nsg28
(lp2736
(NI17
tp2737
asg32
Nsbsg33
I2
sg34
F18.0
sbs(g8
S'endless'
p2738
tp2739
g0
(g14
g2
Ntp2740
Rp2741
(dp2742
g18
F0.5
sg19
I19
sg20
g0
(g21
g22
(dp2743
I01
I1
sNI18
stp2744
Rp2745
(dp2746
g19
I19
sg27
Nsg28
(lp2747
(NI18
tp2748
a(I01
I1
tp2749
asg32
Nsbsg33
I2
sg34
F20.0
sbs(g9
S'today'
p2750
tp2751
g0
(g14
g2
Ntp2752
Rp2753
(dp2754
g18
F0.5
sg19
I17
sg20
g0
(g21
g22
(dp2755
NI17
stp2756
Rp2757
(dp2758
g19
I17
sg27
Nsg28
(lp2759
(NI17
tp2760
asg32
Nsbsg33
I2
sg34
F18.0
sbs(g8
g1767
tp2761
g0
(g14
g2
Ntp2762
Rp2763
(dp2764
g18
F0.5
sg19
I19
sg20
g0
(g21
g22
(dp2765
NI19
stp2766
Rp2767
(dp2768
g19
I19
sg27
Nsg28
(lp2769
(NI19
tp2770
asg32
Nsbsg33
I2
sg34
F20.0
sbs(g8
g2193
tp2771
g0
(g14
g2
Ntp2772
Rp2773
(dp2774
g18
F0.5
sg19
I19
sg20
g0
(g21
g22
(dp2775
NI19
stp2776
Rp2777
(dp2778
g19
I19
sg27
Nsg28
(lp2779
(NI19
tp2780
asg32
Nsbsg33
I2
sg34
F20.0
sbs(g8
g632
tp2781
g0
(g14
g2
Ntp2782
Rp2783
(dp2784
g18
F0.5
sg19
I19
sg20
g0
(g21
g22
(dp2785
NI19
stp2786
Rp2787
(dp2788
g19
I19
sg27
Nsg28
(lp2789
(NI19
tp2790
asg32
Nsbsg33
I2
sg34
F20.0
sbs(g8
S'passing'
p2791
tp2792
g0
(g14
g2
Ntp2793
Rp2794
(dp2795
g18
F0.5
sg19
I19
sg20
g0
(g21
g22
(dp2796
NI19
stp2797
Rp2798
(dp2799
g19
I19
sg27
Nsg28
(lp2800
(NI19
tp2801
asg32
Nsbsg33
I2
sg34
F20.0
sbs(g9
g1288
tp2802
g0
(g14
g2
Ntp2803
Rp2804
(dp2805
g18
F0.5
sg19
I17
sg20
g0
(g21
g22
(dp2806
NI17
stp2807
Rp2808
(dp2809
g19
I17
sg27
Nsg28
(lp2810
(NI17
tp2811
asg32
Nsbsg33
I2
sg34
F18.0
sbs(g8
S'40'
p2812
tp2813
g0
(g14
g2
Ntp2814
Rp2815
(dp2816
g18
F0.5
sg19
I19
sg20
g0
(g21
g22
(dp2817
NI19
stp2818
Rp2819
(dp2820
g19
I19
sg27
Nsg28
(lp2821
(NI19
tp2822
asg32
Nsbsg33
I2
sg34
F20.0
sbs(g9
S'run'
p2823
tp2824
g0
(g14
g2
Ntp2825
Rp2826
(dp2827
g18
F0.5
sg19
I17
sg20
g0
(g21
g22
(dp2828
NI17
stp2829
Rp2830
(dp2831
g19
I17
sg27
Nsg28
(lp2832
(NI17
tp2833
asg32
Nsbsg33
I2
sg34
F18.0
sbs(g9
S'attending'
p2834
tp2835
g0
(g14
g2
Ntp2836
Rp2837
(dp2838
g18
F0.5
sg19
I17
sg20
g0
(g21
g22
(dp2839
I01
I2
sNI15
stp2840
Rp2841
(dp2842
g19
I17
sg27
Nsg28
(lp2843
(NI15
tp2844
a(I01
I2
tp2845
asg32
Nsbsg33
I2
sg34
F18.0
sbs(g8
S'happy'
p2846
tp2847
g0
(g14
g2
Ntp2848
Rp2849
(dp2850
g18
F0.5
sg19
I19
sg20
g0
(g21
g22
(dp2851
NI19
stp2852
Rp2853
(dp2854
g19
I19
sg27
Nsg28
(lp2855
(NI19
tp2856
asg32
Nsbsg33
I2
sg34
F20.0
sbs(g8
g608
tp2857
g0
(g14
g2
Ntp2858
Rp2859
(dp2860
g18
F0.5
sg19
I19
sg20
g0
(g21
g22
(dp2861
NI19
stp2862
Rp2863
(dp2864
g19
I19
sg27
Nsg28
(lp2865
(NI19
tp2866
asg32
Nsbsg33
I2
sg34
F20.0
sbs(g8
g2704
tp2867
g0
(g14
g2
Ntp2868
Rp2869
(dp2870
g18
F0.5
sg19
I19
sg20
g0
(g21
g22
(dp2871
I01
I1
sNI18
stp2872
Rp2873
(dp2874
g19
I19
sg27
Nsg28
(lp2875
(NI18
tp2876
a(I01
I1
tp2877
asg32
Nsbsg33
I2
sg34
F20.0
sbs(g9
g1403
tp2878
g0
(g14
g2
Ntp2879
Rp2880
(dp2881
g18
F0.5
sg19
I17
sg20
g0
(g21
g22
(dp2882
I01
I1
sNI16
stp2883
Rp2884
(dp2885
g19
I17
sg27
Nsg28
(lp2886
(NI16
tp2887
a(I01
I1
tp2888
asg32
Nsbsg33
I2
sg34
F18.0
sbs(g8
S'see!'
p2889
tp2890
g0
(g14
g2
Ntp2891
Rp2892
(dp2893
g18
F0.5
sg19
I19
sg20
g0
(g21
g22
(dp2894
NI19
stp2895
Rp2896
(dp2897
g19
I19
sg27
Nsg28
(lp2898
(NI19
tp2899
asg32
Nsbsg33
I2
sg34
F20.0
sbs(g9
g991
tp2900
g0
(g14
g2
Ntp2901
Rp2902
(dp2903
g18
F0.5
sg19
I17
sg20
g0
(g21
g22
(dp2904
NI17
stp2905
Rp2906
(dp2907
g19
I17
sg27
Nsg28
(lp2908
(NI17
tp2909
asg32
Nsbsg33
I2
sg34
F18.0
sbs(g8
S'than'
p2910
tp2911
g0
(g14
g2
Ntp2912
Rp2913
(dp2914
g18
F0.5
sg19
I19
sg20
g0
(g21
g22
(dp2915
NI19
stp2916
Rp2917
(dp2918
g19
I19
sg27
Nsg28
(lp2919
(NI19
tp2920
asg32
Nsbsg33
I2
sg34
F20.0
sbs(g9
g551
tp2921
g0
(g14
g2
Ntp2922
Rp2923
(dp2924
g18
F0.5
sg19
I17
sg20
g0
(g21
g22
(dp2925
NI17
stp2926
Rp2927
(dp2928
g19
I17
sg27
Nsg28
(lp2929
(NI17
tp2930
asg32
Nsbsg33
I2
sg34
F18.0
sbs(g9
g1517
tp2931
g0
(g14
g2
Ntp2932
Rp2933
(dp2934
g18
F0.5
sg19
I17
sg20
g0
(g21
g22
(dp2935
NI17
stp2936
Rp2937
(dp2938
g19
I17
sg27
Nsg28
(lp2939
(NI17
tp2940
asg32
Nsbsg33
I2
sg34
F18.0
sbs(g8
S'christian'
p2941
tp2942
g0
(g14
g2
Ntp2943
Rp2944
(dp2945
g18
F0.5
sg19
I19
sg20
g0
(g21
g22
(dp2946
NI19
stp2947
Rp2948
(dp2949
g19
I19
sg27
Nsg28
(lp2950
(NI19
tp2951
asg32
Nsbsg33
I2
sg34
F20.0
sbs(g9
g2229
tp2952
g0
(g14
g2
Ntp2953
Rp2954
(dp2955
g18
F0.5
sg19
I17
sg20
g0
(g21
g22
(dp2956
NI17
stp2957
Rp2958
(dp2959
g19
I17
sg27
Nsg28
(lp2960
(NI17
tp2961
asg32
Nsbsg33
I2
sg34
F18.0
sbs(g9
S'out'
p2962
tp2963
g0
(g14
g2
Ntp2964
Rp2965
(dp2966
g18
F0.5
sg19
I17
sg20
g0
(g21
g22
(dp2967
I01
I2
sNI15
stp2968
Rp2969
(dp2970
g19
I17
sg27
Nsg28
(lp2971
(NI15
tp2972
a(I01
I2
tp2973
asg32
Nsbsg33
I2
sg34
F18.0
sbs(g8
S'just'
p2974
tp2975
g0
(g14
g2
Ntp2976
Rp2977
(dp2978
g18
F0.5
sg19
I19
sg20
g0
(g21
g22
(dp2979
I01
I1
sNI18
stp2980
Rp2981
(dp2982
g19
I19
sg27
Nsg28
(lp2983
(NI18
tp2984
a(I01
I1
tp2985
asg32
Nsbsg33
I2
sg34
F20.0
sbs(g9
g279
tp2986
g0
(g14
g2
Ntp2987
Rp2988
(dp2989
g18
F0.5
sg19
I17
sg20
g0
(g21
g22
(dp2990
I01
I4
sNI13
stp2991
Rp2992
(dp2993
g19
I17
sg27
Nsg28
(lp2994
(NI13
tp2995
a(I01
I4
tp2996
asg32
Nsbsg33
I2
sg34
F18.0
sbs(g8
S'sandwich'
p2997
tp2998
g0
(g14
g2
Ntp2999
Rp3000
(dp3001
g18
F0.5
sg19
I19
sg20
g0
(g21
g22
(dp3002
I01
I1
sNI18
stp3003
Rp3004
(dp3005
g19
I19
sg27
Nsg28
(lp3006
(NI18
tp3007
a(I01
I1
tp3008
asg32
Nsbsg33
I2
sg34
F20.0
sbs(g9
S'site'
p3009
tp3010
g0
(g14
g2
Ntp3011
Rp3012
(dp3013
g18
F0.5
sg19
I17
sg20
g0
(g21
g22
(dp3014
I01
I1
sNI16
stp3015
Rp3016
(dp3017
g19
I17
sg27
Nsg28
(lp3018
(NI16
tp3019
a(I01
I1
tp3020
asg32
Nsbsg33
I2
sg34
F18.0
sbs(g9
g1470
tp3021
g0
(g14
g2
Ntp3022
Rp3023
(dp3024
g18
F0.5
sg19
I17
sg20
g0
(g21
g22
(dp3025
NI17
stp3026
Rp3027
(dp3028
g19
I17
sg27
Nsg28
(lp3029
(NI17
tp3030
asg32
Nsbsg33
I2
sg34
F18.0
sbs(g8
S'2010'
p3031
tp3032
g0
(g14
g2
Ntp3033
Rp3034
(dp3035
g18
F0.5
sg19
I19
sg20
g0
(g21
g22
(dp3036
I01
I1
sNI18
stp3037
Rp3038
(dp3039
g19
I19
sg27
Nsg28
(lp3040
(NI18
tp3041
a(I01
I1
tp3042
asg32
Nsbsg33
I2
sg34
F20.0
sbs(g9
S'or'
p3043
tp3044
g0
(g14
g2
Ntp3045
Rp3046
(dp3047
g18
F0.5
sg19
I17
sg20
g0
(g21
g22
(dp3048
I01
I1
sNI16
stp3049
Rp3050
(dp3051
g19
I17
sg27
Nsg28
(lp3052
(NI16
tp3053
a(I01
I1
tp3054
asg32
Nsbsg33
I2
sg34
F18.0
sbs(g8
S'propmale'
p3055
tp3056
g0
(g14
g2
Ntp3057
Rp3058
(dp3059
g18
F0.5
sg19
I19
sg20
g0
(g21
g22
(dp3060
I01
I3
sNI16
stp3061
Rp3062
(dp3063
g19
I19
sg27
Nsg28
(lp3064
(NI16
tp3065
a(I01
I3
tp3066
asg32
Nsbsg33
I2
sg34
F20.0
sbs(g9
g1633
tp3067
g0
(g14
g2
Ntp3068
Rp3069
(dp3070
g18
F0.5
sg19
I17
sg20
g0
(g21
g22
(dp3071
I01
I1
sNI16
stp3072
Rp3073
(dp3074
g19
I17
sg27
Nsg28
(lp3075
(NI16
tp3076
a(I01
I1
tp3077
asg32
Nsbsg33
I2
sg34
F18.0
sbs(g9
S'then'
p3078
tp3079
g0
(g14
g2
Ntp3080
Rp3081
(dp3082
g18
F0.5
sg19
I17
sg20
g0
(g21
g22
(dp3083
I01
I1
sNI16
stp3084
Rp3085
(dp3086
g19
I17
sg27
Nsg28
(lp3087
(NI16
tp3088
a(I01
I1
tp3089
asg32
Nsbsg33
I2
sg34
F18.0
sbs(g8
S'beef'
p3090
tp3091
g0
(g14
g2
Ntp3092
Rp3093
(dp3094
g18
F0.5
sg19
I19
sg20
g0
(g21
g22
(dp3095
I01
I1
sNI18
stp3096
Rp3097
(dp3098
g19
I19
sg27
Nsg28
(lp3099
(NI18
tp3100
a(I01
I1
tp3101
asg32
Nsbsg33
I2
sg34
F20.0
sbs(g9
g2523
tp3102
g0
(g14
g2
Ntp3103
Rp3104
(dp3105
g18
F0.5
sg19
I17
sg20
g0
(g21
g22
(dp3106
NI17
stp3107
Rp3108
(dp3109
g19
I17
sg27
Nsg28
(lp3110
(NI17
tp3111
asg32
Nsbsg33
I2
sg34
F18.0
sbs(g9
S'my'
p3112
tp3113
g0
(g14
g2
Ntp3114
Rp3115
(dp3116
g18
F0.5
sg19
I17
sg20
g0
(g21
g22
(dp3117
NI17
stp3118
Rp3119
(dp3120
g19
I17
sg27
Nsg28
(lp3121
(NI17
tp3122
asg32
Nsbsg33
I2
sg34
F18.0
sbs(g9
g1586
tp3123
g0
(g14
g2
Ntp3124
Rp3125
(dp3126
g18
F0.5
sg19
I17
sg20
g0
(g21
g22
(dp3127
NI17
stp3128
Rp3129
(dp3130
g19
I17
sg27
Nsg28
(lp3131
(NI17
tp3132
asg32
Nsbsg33
I2
sg34
F18.0
sbs(g8
g979
tp3133
g0
(g14
g2
Ntp3134
Rp3135
(dp3136
g18
F0.5
sg19
I19
sg20
g0
(g21
g22
(dp3137
NI19
stp3138
Rp3139
(dp3140
g19
I19
sg27
Nsg28
(lp3141
(NI19
tp3142
asg32
Nsbsg33
I2
sg34
F20.0
sbs(g8
g2413
tp3143
g0
(g14
g2
Ntp3144
Rp3145
(dp3146
g18
F0.5
sg19
I19
sg20
g0
(g21
g22
(dp3147
NI19
stp3148
Rp3149
(dp3150
g19
I19
sg27
Nsg28
(lp3151
(NI19
tp3152
asg32
Nsbsg33
I2
sg34
F20.0
sbs(g8
S'punch'
p3153
tp3154
g0
(g14
g2
Ntp3155
Rp3156
(dp3157
g18
F0.5
sg19
I19
sg20
g0
(g21
g22
(dp3158
I01
I1
sNI18
stp3159
Rp3160
(dp3161
g19
I19
sg27
Nsg28
(lp3162
(NI18
tp3163
a(I01
I1
tp3164
asg32
Nsbsg33
I2
sg34
F20.0
sbs(g9
g2342
tp3165
g0
(g14
g2
Ntp3166
Rp3167
(dp3168
g18
F0.5
sg19
I17
sg20
g0
(g21
g22
(dp3169
NI17
stp3170
Rp3171
(dp3172
g19
I17
sg27
Nsg28
(lp3173
(NI17
tp3174
asg32
Nsbsg33
I2
sg34
F18.0
sbs(g9
g3153
tp3175
g0
(g14
g2
Ntp3176
Rp3177
(dp3178
g18
F0.5
sg19
I17
sg20
g0
(g21
g22
(dp3179
NI17
stp3180
Rp3181
(dp3182
g19
I17
sg27
Nsg28
(lp3183
(NI17
tp3184
asg32
Nsbsg33
I2
sg34
F18.0
sbs(g8
g209
tp3185
g0
(g14
g2
Ntp3186
Rp3187
(dp3188
g18
F0.5
sg19
I19
sg20
g0
(g21
g22
(dp3189
I01
I1
sNI18
stp3190
Rp3191
(dp3192
g19
I19
sg27
Nsg28
(lp3193
(NI18
tp3194
a(I01
I1
tp3195
asg32
Nsbsg33
I2
sg34
F20.0
sbs(g8
S'last'
p3196
tp3197
g0
(g14
g2
Ntp3198
Rp3199
(dp3200
g18
F0.5
sg19
I19
sg20
g0
(g21
g22
(dp3201
I01
I1
sNI18
stp3202
Rp3203
(dp3204
g19
I19
sg27
Nsg28
(lp3205
(NI18
tp3206
a(I01
I1
tp3207
asg32
Nsbsg33
I2
sg34
F20.0
sbs(g8
g1114
tp3208
g0
(g14
g2
Ntp3209
Rp3210
(dp3211
g18
F0.5
sg19
I19
sg20
g0
(g21
g22
(dp3212
NI19
stp3213
Rp3214
(dp3215
g19
I19
sg27
Nsg28
(lp3216
(NI19
tp3217
asg32
Nsbsg33
I2
sg34
F20.0
sbs(g9
S'up'
p3218
tp3219
g0
(g14
g2
Ntp3220
Rp3221
(dp3222
g18
F0.5
sg19
I17
sg20
g0
(g21
g22
(dp3223
I01
I1
sNI16
stp3224
Rp3225
(dp3226
g19
I17
sg27
Nsg28
(lp3227
(NI16
tp3228
a(I01
I1
tp3229
asg32
Nsbsg33
I2
sg34
F18.0
sbs(g9
g1678
tp3230
g0
(g14
g2
Ntp3231
Rp3232
(dp3233
g18
F0.5
sg19
I17
sg20
g0
(g21
g22
(dp3234
NI17
stp3235
Rp3236
(dp3237
g19
I17
sg27
Nsg28
(lp3238
(NI17
tp3239
asg32
Nsbsg33
I2
sg34
F18.0
sbs(g8
S'has'
p3240
tp3241
g0
(g14
g2
Ntp3242
Rp3243
(dp3244
g18
F0.5
sg19
I19
sg20
g0
(g21
g22
(dp3245
NI19
stp3246
Rp3247
(dp3248
g19
I19
sg27
Nsg28
(lp3249
(NI19
tp3250
asg32
Nsbsg33
I2
sg34
F20.0
sbs(g8
g1276
tp3251
g0
(g14
g2
Ntp3252
Rp3253
(dp3254
g18
F0.5
sg19
I19
sg20
g0
(g21
g22
(dp3255
NI19
stp3256
Rp3257
(dp3258
g19
I19
sg27
Nsg28
(lp3259
(NI19
tp3260
asg32
Nsbsg33
I2
sg34
F20.0
sbs(g8
g163
tp3261
g0
(g14
g2
Ntp3262
Rp3263
(dp3264
g18
F0.5
sg19
I19
sg20
g0
(g21
g22
(dp3265
I01
I1
sNI18
stp3266
Rp3267
(dp3268
g19
I19
sg27
Nsg28
(lp3269
(NI18
tp3270
a(I01
I1
tp3271
asg32
Nsbsg33
I2
sg34
F20.0
sbs(g9
g1024
tp3272
g0
(g14
g2
Ntp3273
Rp3274
(dp3275
g18
F0.5
sg19
I17
sg20
g0
(g21
g22
(dp3276
I01
I1
sNI16
stp3277
Rp3278
(dp3279
g19
I17
sg27
Nsg28
(lp3280
(NI16
tp3281
a(I01
I1
tp3282
asg32
Nsbsg33
I2
sg34
F18.0
sbs(g8
S'by'
p3283
tp3284
g0
(g14
g2
Ntp3285
Rp3286
(dp3287
g18
F0.5
sg19
I19
sg20
g0
(g21
g22
(dp3288
I01
I1
sNI18
stp3289
Rp3290
(dp3291
g19
I19
sg27
Nsg28
(lp3292
(NI18
tp3293
a(I01
I1
tp3294
asg32
Nsbsg33
I2
sg34
F20.0
sbs(g8
S'reason'
p3295
tp3296
g0
(g14
g2
Ntp3297
Rp3298
(dp3299
g18
F0.5
sg19
I19
sg20
g0
(g21
g22
(dp3300
I01
I1
sNI18
stp3301
Rp3302
(dp3303
g19
I19
sg27
Nsg28
(lp3304
(NI18
tp3305
a(I01
I1
tp3306
asg32
Nsbsg33
I2
sg34
F20.0
sbs(g9
g1149
tp3307
g0
(g14
g2
Ntp3308
Rp3309
(dp3310
g18
F0.5
sg19
I17
sg20
g0
(g21
g22
(dp3311
NI17
stp3312
Rp3313
(dp3314
g19
I17
sg27
Nsg28
(lp3315
(NI17
tp3316
asg32
Nsbsg33
I2
sg34
F18.0
sbs(g9
S'doing'
p3317
tp3318
g0
(g14
g2
Ntp3319
Rp3320
(dp3321
g18
F0.5
sg19
I17
sg20
g0
(g21
g22
(dp3322
I01
I1
sNI16
stp3323
Rp3324
(dp3325
g19
I17
sg27
Nsg28
(lp3326
(NI16
tp3327
a(I01
I1
tp3328
asg32
Nsbsg33
I2
sg34
F18.0
sbs(g8
S')'
p3329
tp3330
g0
(g14
g2
Ntp3331
Rp3332
(dp3333
g18
F0.5
sg19
I19
sg20
g0
(g21
g22
(dp3334
I01
I1
sNI18
stp3335
Rp3336
(dp3337
g19
I19
sg27
Nsg28
(lp3338
(NI18
tp3339
a(I01
I1
tp3340
asg32
Nsbsg33
I2
sg34
F20.0
sbs(g8
S'spring'
p3341
tp3342
g0
(g14
g2
Ntp3343
Rp3344
(dp3345
g18
F0.5
sg19
I19
sg20
g0
(g21
g22
(dp3346
NI19
stp3347
Rp3348
(dp3349
g19
I19
sg27
Nsg28
(lp3350
(NI19
tp3351
asg32
Nsbsg33
I2
sg34
F20.0
sbs(g8
S'with'
p3352
tp3353
g0
(g14
g2
Ntp3354
Rp3355
(dp3356
g18
F0.5
sg19
I19
sg20
g0
(g21
g22
(dp3357
I01
I1
sNI18
stp3358
Rp3359
(dp3360
g19
I19
sg27
Nsg28
(lp3361
(NI18
tp3362
a(I01
I1
tp3363
asg32
Nsbsg33
I2
sg34
F20.0
sbs(g9
g3240
tp3364
g0
(g14
g2
Ntp3365
Rp3366
(dp3367
g18
F0.5
sg19
I17
sg20
g0
(g21
g22
(dp3368
I01
I1
sNI16
stp3369
Rp3370
(dp3371
g19
I17
sg27
Nsg28
(lp3372
(NI16
tp3373
a(I01
I1
tp3374
asg32
Nsbsg33
I2
sg34
F18.0
sbs(g9
g1346
tp3375
g0
(g14
g2
Ntp3376
Rp3377
(dp3378
g18
F0.5
sg19
I17
sg20
g0
(g21
g22
(dp3379
I01
I1
sNI16
stp3380
Rp3381
(dp3382
g19
I17
sg27
Nsg28
(lp3383
(NI16
tp3384
a(I01
I1
tp3385
asg32
Nsbsg33
I2
sg34
F18.0
sbs(g9
S'heading'
p3386
tp3387
g0
(g14
g2
Ntp3388
Rp3389
(dp3390
g18
F0.5
sg19
I17
sg20
g0
(g21
g22
(dp3391
I01
I1
sNI16
stp3392
Rp3393
(dp3394
g19
I17
sg27
Nsg28
(lp3395
(NI16
tp3396
a(I01
I1
tp3397
asg32
Nsbsg33
I2
sg34
F18.0
sbs(g8
g2681
tp3398
g0
(g14
g2
Ntp3399
Rp3400
(dp3401
g18
F0.5
sg19
I19
sg20
g0
(g21
g22
(dp3402
NI19
stp3403
Rp3404
(dp3405
g19
I19
sg27
Nsg28
(lp3406
(NI19
tp3407
asg32
Nsbsg33
I2
sg34
F20.0
sbs(g9
S'blue'
p3408
tp3409
g0
(g14
g2
Ntp3410
Rp3411
(dp3412
g18
F0.5
sg19
I17
sg20
g0
(g21
g22
(dp3413
I01
I1
sNI16
stp3414
Rp3415
(dp3416
g19
I17
sg27
Nsg28
(lp3417
(NI16
tp3418
a(I01
I1
tp3419
asg32
Nsbsg33
I2
sg34
F18.0
sbs(g8
S'sitting'
p3420
tp3421
g0
(g14
g2
Ntp3422
Rp3423
(dp3424
g18
F0.5
sg19
I19
sg20
g0
(g21
g22
(dp3425
NI19
stp3426
Rp3427
(dp3428
g19
I19
sg27
Nsg28
(lp3429
(NI19
tp3430
asg32
Nsbsg33
I2
sg34
F20.0
sbs(g8
g404
tp3431
g0
(g14
g2
Ntp3432
Rp3433
(dp3434
g18
F0.5
sg19
I19
sg20
g0
(g21
g22
(dp3435
I01
I1
sNI18
stp3436
Rp3437
(dp3438
g19
I19
sg27
Nsg28
(lp3439
(NI18
tp3440
a(I01
I1
tp3441
asg32
Nsbsg33
I2
sg34
F20.0
sbs(g9
g817
tp3442
g0
(g14
g2
Ntp3443
Rp3444
(dp3445
g18
F0.5
sg19
I17
sg20
g0
(g21
g22
(dp3446
NI17
stp3447
Rp3448
(dp3449
g19
I17
sg27
Nsg28
(lp3450
(NI17
tp3451
asg32
Nsbsg33
I2
sg34
F18.0
sbs(g9
S'lost'
p3452
tp3453
g0
(g14
g2
Ntp3454
Rp3455
(dp3456
g18
F0.5
sg19
I17
sg20
g0
(g21
g22
(dp3457
NI17
stp3458
Rp3459
(dp3460
g19
I17
sg27
Nsg28
(lp3461
(NI17
tp3462
asg32
Nsbsg33
I2
sg34
F18.0
sbs(g9
S'to'
p3463
tp3464
g0
(g14
g2
Ntp3465
Rp3466
(dp3467
g18
F0.5
sg19
I17
sg20
g0
(g21
g22
(dp3468
NI17
stp3469
Rp3470
(dp3471
g19
I17
sg27
Nsg28
(lp3472
(NI17
tp3473
asg32
Nsbsg33
I2
sg34
F18.0
sbs(g9
g2084
tp3474
g0
(g14
g2
Ntp3475
Rp3476
(dp3477
g18
F0.5
sg19
I17
sg20
g0
(g21
g22
(dp3478
NI17
stp3479
Rp3480
(dp3481
g19
I17
sg27
Nsg28
(lp3482
(NI17
tp3483
asg32
Nsbsg33
I2
sg34
F18.0
sbs(g8
S'here'
p3484
tp3485
g0
(g14
g2
Ntp3486
Rp3487
(dp3488
g18
F0.5
sg19
I19
sg20
g0
(g21
g22
(dp3489
NI19
stp3490
Rp3491
(dp3492
g19
I19
sg27
Nsg28
(lp3493
(NI19
tp3494
asg32
Nsbsg33
I2
sg34
F20.0
sbs(g8
g3218
tp3495
g0
(g14
g2
Ntp3496
Rp3497
(dp3498
g18
F0.5
sg19
I19
sg20
g0
(g21
g22
(dp3499
NI19
stp3500
Rp3501
(dp3502
g19
I19
sg27
Nsg28
(lp3503
(NI19
tp3504
asg32
Nsbsg33
I2
sg34
F20.0
sbs(g8
S'coffee'
p3505
tp3506
g0
(g14
g2
Ntp3507
Rp3508
(dp3509
g18
F0.5
sg19
I19
sg20
g0
(g21
g22
(dp3510
NI19
stp3511
Rp3512
(dp3513
g19
I19
sg27
Nsg28
(lp3514
(NI19
tp3515
asg32
Nsbsg33
I2
sg34
F20.0
sbs(g9
g2006
tp3516
g0
(g14
g2
Ntp3517
Rp3518
(dp3519
g18
F0.5
sg19
I17
sg20
g0
(g21
g22
(dp3520
NI17
stp3521
Rp3522
(dp3523
g19
I17
sg27
Nsg28
(lp3524
(NI17
tp3525
asg32
Nsbsg33
I2
sg34
F18.0
sbs(g9
g2018
tp3526
g0
(g14
g2
Ntp3527
Rp3528
(dp3529
g18
F0.5
sg19
I17
sg20
g0
(g21
g22
(dp3530
I01
I1
sNI16
stp3531
Rp3532
(dp3533
g19
I17
sg27
Nsg28
(lp3534
(NI16
tp3535
a(I01
I1
tp3536
asg32
Nsbsg33
I2
sg34
F18.0
sbs(g9
S'tour'
p3537
tp3538
g0
(g14
g2
Ntp3539
Rp3540
(dp3541
g18
F0.5
sg19
I17
sg20
g0
(g21
g22
(dp3542
NI17
stp3543
Rp3544
(dp3545
g19
I17
sg27
Nsg28
(lp3546
(NI17
tp3547
asg32
Nsbsg33
I2
sg34
F18.0
sbs(g9
S'\\"'
p3548
tp3549
g0
(g14
g2
Ntp3550
Rp3551
(dp3552
g18
F0.5
sg19
I17
sg20
g0
(g21
g22
(dp3553
NI17
stp3554
Rp3555
(dp3556
g19
I17
sg27
Nsg28
(lp3557
(NI17
tp3558
asg32
Nsbsg33
I2
sg34
F18.0
sbs(g9
g2647
tp3559
g0
(g14
g2
Ntp3560
Rp3561
(dp3562
g18
F0.5
sg19
I17
sg20
g0
(g21
g22
(dp3563
I01
I1
sNI16
stp3564
Rp3565
(dp3566
g19
I17
sg27
Nsg28
(lp3567
(NI16
tp3568
a(I01
I1
tp3569
asg32
Nsbsg33
I2
sg34
F18.0
sbs(g9
S'his'
p3570
tp3571
g0
(g14
g2
Ntp3572
Rp3573
(dp3574
g18
F0.5
sg19
I17
sg20
g0
(g21
g22
(dp3575
I01
I2
sNI15
stp3576
Rp3577
(dp3578
g19
I17
sg27
Nsg28
(lp3579
(NI15
tp3580
a(I01
I2
tp3581
asg32
Nsbsg33
I2
sg34
F18.0
sbs(g8
g1357
tp3582
g0
(g14
g2
Ntp3583
Rp3584
(dp3585
g18
F0.5
sg19
I19
sg20
g0
(g21
g22
(dp3586
I01
I1
sNI18
stp3587
Rp3588
(dp3589
g19
I19
sg27
Nsg28
(lp3590
(NI18
tp3591
a(I01
I1
tp3592
asg32
Nsbsg33
I2
sg34
F20.0
sbs(g9
S'.'
p3593
tp3594
g0
(g14
g2
Ntp3595
Rp3596
(dp3597
g18
F0.5
sg19
I17
sg20
g0
(g21
g22
(dp3598
NI17
stp3599
Rp3600
(dp3601
g19
I17
sg27
Nsg28
(lp3602
(NI17
tp3603
asg32
Nsbsg33
I2
sg34
F18.0
sbs(g8
g152
tp3604
g0
(g14
g2
Ntp3605
Rp3606
(dp3607
g18
F0.5
sg19
I19
sg20
g0
(g21
g22
(dp3608
I01
I1
sNI18
stp3609
Rp3610
(dp3611
g19
I19
sg27
Nsg28
(lp3612
(NI18
tp3613
a(I01
I1
tp3614
asg32
Nsbsg33
I2
sg34
F20.0
sbs(g9
S'propfirst'
p3615
tp3616
g0
(g14
g2
Ntp3617
Rp3618
(dp3619
g18
F0.5
sg19
I17
sg20
g0
(g21
g22
(dp3620
I01
I2
sNI15
stp3621
Rp3622
(dp3623
g19
I17
sg27
Nsg28
(lp3624
(NI15
tp3625
a(I01
I2
tp3626
asg32
Nsbsg33
I2
sg34
F18.0
sbs(g9
g2812
tp3627
g0
(g14
g2
Ntp3628
Rp3629
(dp3630
g18
F0.5
sg19
I17
sg20
g0
(g21
g22
(dp3631
I01
I1
sNI16
stp3632
Rp3633
(dp3634
g19
I17
sg27
Nsg28
(lp3635
(NI16
tp3636
a(I01
I1
tp3637
asg32
Nsbsg33
I2
sg34
F18.0
sbs(g9
g57
tp3638
g0
(g14
g2
Ntp3639
Rp3640
(dp3641
g18
F0.5
sg19
I17
sg20
g0
(g21
g22
(dp3642
NI17
stp3643
Rp3644
(dp3645
g19
I17
sg27
Nsg28
(lp3646
(NI17
tp3647
asg32
Nsbsg33
I2
sg34
F18.0
sbs(g9
g759
tp3648
g0
(g14
g2
Ntp3649
Rp3650
(dp3651
g18
F0.5
sg19
I17
sg20
g0
(g21
g22
(dp3652
NI17
stp3653
Rp3654
(dp3655
g19
I17
sg27
Nsg28
(lp3656
(NI17
tp3657
asg32
Nsbsg33
I2
sg34
F18.0
sbs(g9
S'rights'
p3658
tp3659
g0
(g14
g2
Ntp3660
Rp3661
(dp3662
g18
F0.5
sg19
I17
sg20
g0
(g21
g22
(dp3663
NI17
stp3664
Rp3665
(dp3666
g19
I17
sg27
Nsg28
(lp3667
(NI17
tp3668
asg32
Nsbsg33
I2
sg34
F18.0
sbs(g9
S'drawing'
p3669
tp3670
g0
(g14
g2
Ntp3671
Rp3672
(dp3673
g18
F0.5
sg19
I17
sg20
g0
(g21
g22
(dp3674
NI17
stp3675
Rp3676
(dp3677
g19
I17
sg27
Nsg28
(lp3678
(NI17
tp3679
asg32
Nsbsg33
I2
sg34
F18.0
sbs(g9
g2846
tp3680
g0
(g14
g2
Ntp3681
Rp3682
(dp3683
g18
F0.5
sg19
I17
sg20
g0
(g21
g22
(dp3684
I01
I1
sNI16
stp3685
Rp3686
(dp3687
g19
I17
sg27
Nsg28
(lp3688
(NI16
tp3689
a(I01
I1
tp3690
asg32
Nsbsg33
I2
sg34
F18.0
sbs(g8
g1575
tp3691
g0
(g14
g2
Ntp3692
Rp3693
(dp3694
g18
F0.5
sg19
I19
sg20
g0
(g21
g22
(dp3695
I01
I1
sNI18
stp3696
Rp3697
(dp3698
g19
I19
sg27
Nsg28
(lp3699
(NI18
tp3700
a(I01
I1
tp3701
asg32
Nsbsg33
I2
sg34
F20.0
sbs(g8
g967
tp3702
g0
(g14
g2
Ntp3703
Rp3704
(dp3705
g18
F0.5
sg19
I19
sg20
g0
(g21
g22
(dp3706
NI19
stp3707
Rp3708
(dp3709
g19
I19
sg27
Nsg28
(lp3710
(NI19
tp3711
asg32
Nsbsg33
I2
sg34
F20.0
sbs(g9
g2308
tp3712
g0
(g14
g2
Ntp3713
Rp3714
(dp3715
g18
F0.5
sg19
I17
sg20
g0
(g21
g22
(dp3716
I01
I1
sNI16
stp3717
Rp3718
(dp3719
g19
I17
sg27
Nsg28
(lp3720
(NI16
tp3721
a(I01
I1
tp3722
asg32
Nsbsg33
I2
sg34
F18.0
sbs(g8
g3317
tp3723
g0
(g14
g2
Ntp3724
Rp3725
(dp3726
g18
F0.5
sg19
I19
sg20
g0
(g21
g22
(dp3727
NI19
stp3728
Rp3729
(dp3730
g19
I19
sg27
Nsg28
(lp3731
(NI19
tp3732
asg32
Nsbsg33
I2
sg34
F20.0
sbs(g8
g934
tp3733
g0
(g14
g2
Ntp3734
Rp3735
(dp3736
g18
F0.5
sg19
I19
sg20
g0
(g21
g22
(dp3737
I01
I1
sNI18
stp3738
Rp3739
(dp3740
g19
I19
sg27
Nsg28
(lp3741
(NI18
tp3742
a(I01
I1
tp3743
asg32
Nsbsg33
I2
sg34
F20.0
sbs(g9
S'less'
p3744
tp3745
g0
(g14
g2
Ntp3746
Rp3747
(dp3748
g18
F0.5
sg19
I17
sg20
g0
(g21
g22
(dp3749
I01
I1
sNI16
stp3750
Rp3751
(dp3752
g19
I17
sg27
Nsg28
(lp3753
(NI16
tp3754
a(I01
I1
tp3755
asg32
Nsbsg33
I2
sg34
F18.0
sbs(g9
g922
tp3756
g0
(g14
g2
Ntp3757
Rp3758
(dp3759
g18
F0.5
sg19
I17
sg20
g0
(g21
g22
(dp3760
NI17
stp3761
Rp3762
(dp3763
g19
I17
sg27
Nsg28
(lp3764
(NI17
tp3765
asg32
Nsbsg33
I2
sg34
F18.0
sbs(g9
S"won't"
p3766
tp3767
g0
(g14
g2
Ntp3768
Rp3769
(dp3770
g18
F0.5
sg19
I17
sg20
g0
(g21
g22
(dp3771
I01
I1
sNI16
stp3772
Rp3773
(dp3774
g19
I17
sg27
Nsg28
(lp3775
(NI16
tp3776
a(I01
I1
tp3777
asg32
Nsbsg33
I2
sg34
F18.0
sbs(g9
g116
tp3778
g0
(g14
g2
Ntp3779
Rp3780
(dp3781
g18
F0.5
sg19
I17
sg20
g0
(g21
g22
(dp3782
NI17
stp3783
Rp3784
(dp3785
g19
I17
sg27
Nsg28
(lp3786
(NI17
tp3787
asg32
Nsbsg33
I2
sg34
F18.0
sbs(g9
g2501
tp3788
g0
(g14
g2
Ntp3789
Rp3790
(dp3791
g18
F0.5
sg19
I17
sg20
g0
(g21
g22
(dp3792
NI17
stp3793
Rp3794
(dp3795
g19
I17
sg27
Nsg28
(lp3796
(NI17
tp3797
asg32
Nsbsg33
I2
sg34
F18.0
sbs(g9
S'on'
p3798
tp3799
g0
(g14
g2
Ntp3800
Rp3801
(dp3802
g18
F0.5
sg19
I17
sg20
g0
(g21
g22
(dp3803
I01
I3
sNI14
stp3804
Rp3805
(dp3806
g19
I17
sg27
Nsg28
(lp3807
(NI14
tp3808
a(I01
I3
tp3809
asg32
Nsbsg33
I2
sg34
F18.0
sbs(g8
S'and'
p3810
tp3811
g0
(g14
g2
Ntp3812
Rp3813
(dp3814
g18
F0.5
sg19
I19
sg20
g0
(g21
g22
(dp3815
I01
I6
sNI13
stp3816
Rp3817
(dp3818
g19
I19
sg27
Nsg28
(lp3819
(NI13
tp3820
a(I01
I6
tp3821
asg32
Nsbsg33
I2
sg34
F20.0
sbs(g8
S'one'
p3822
tp3823
g0
(g14
g2
Ntp3824
Rp3825
(dp3826
g18
F0.5
sg19
I19
sg20
g0
(g21
g22
(dp3827
NI19
stp3828
Rp3829
(dp3830
g19
I19
sg27
Nsg28
(lp3831
(NI19
tp3832
asg32
Nsbsg33
I2
sg34
F20.0
sbs(g8
S'at'
p3833
tp3834
g0
(g14
g2
Ntp3835
Rp3836
(dp3837
g18
F0.5
sg19
I19
sg20
g0
(g21
g22
(dp3838
I01
I3
sNI16
stp3839
Rp3840
(dp3841
g19
I19
sg27
Nsg28
(lp3842
(NI16
tp3843
a(I01
I3
tp3844
asg32
Nsbsg33
I2
sg34
F20.0
sbs(g8
g3386
tp3845
g0
(g14
g2
Ntp3846
Rp3847
(dp3848
g18
F0.5
sg19
I19
sg20
g0
(g21
g22
(dp3849
NI19
stp3850
Rp3851
(dp3852
g19
I19
sg27
Nsg28
(lp3853
(NI19
tp3854
asg32
Nsbsg33
I2
sg34
F20.0
sbs(g9
S'for'
p3855
tp3856
g0
(g14
g2
Ntp3857
Rp3858
(dp3859
g18
F0.5
sg19
I17
sg20
g0
(g21
g22
(dp3860
I01
I1
sNI16
stp3861
Rp3862
(dp3863
g19
I17
sg27
Nsg28
(lp3864
(NI16
tp3865
a(I01
I1
tp3866
asg32
Nsbsg33
I2
sg34
F18.0
sbs(g9
g1057
tp3867
g0
(g14
g2
Ntp3868
Rp3869
(dp3870
g18
F0.5
sg19
I17
sg20
g0
(g21
g22
(dp3871
NI17
stp3872
Rp3873
(dp3874
g19
I17
sg27
Nsg28
(lp3875
(NI17
tp3876
asg32
Nsbsg33
I2
sg34
F18.0
sbs(g9
g2997
tp3877
g0
(g14
g2
Ntp3878
Rp3879
(dp3880
g18
F0.5
sg19
I17
sg20
g0
(g21
g22
(dp3881
NI17
stp3882
Rp3883
(dp3884
g19
I17
sg27
Nsg28
(lp3885
(NI17
tp3886
asg32
Nsbsg33
I2
sg34
F18.0
sbs(g8
g2468
tp3887
g0
(g14
g2
Ntp3888
Rp3889
(dp3890
g18
F0.5
sg19
I19
sg20
g0
(g21
g22
(dp3891
I01
I1
sNI18
stp3892
Rp3893
(dp3894
g19
I19
sg27
Nsg28
(lp3895
(NI18
tp3896
a(I01
I1
tp3897
asg32
Nsbsg33
I2
sg34
F20.0
sbs(g9
g3196
tp3898
g0
(g14
g2
Ntp3899
Rp3900
(dp3901
g18
F0.5
sg19
I17
sg20
g0
(g21
g22
(dp3902
NI17
stp3903
Rp3904
(dp3905
g19
I17
sg27
Nsg28
(lp3906
(NI17
tp3907
asg32
Nsbsg33
I2
sg34
F18.0
sbs(g9
g1541
tp3908
g0
(g14
g2
Ntp3909
Rp3910
(dp3911
g18
F0.5
sg19
I17
sg20
g0
(g21
g22
(dp3912
NI17
stp3913
Rp3914
(dp3915
g19
I17
sg27
Nsg28
(lp3916
(NI17
tp3917
asg32
Nsbsg33
I2
sg34
F18.0
sbs(g8
g2366
tp3918
g0
(g14
g2
Ntp3919
Rp3920
(dp3921
g18
F0.5
sg19
I19
sg20
g0
(g21
g22
(dp3922
NI19
stp3923
Rp3924
(dp3925
g19
I19
sg27
Nsg28
(lp3926
(NI19
tp3927
asg32
Nsbsg33
I2
sg34
F20.0
sbs(g8
g574
tp3928
g0
(g14
g2
Ntp3929
Rp3930
(dp3931
g18
F0.5
sg19
I19
sg20
g0
(g21
g22
(dp3932
I01
I1
sNI18
stp3933
Rp3934
(dp3935
g19
I19
sg27
Nsg28
(lp3936
(NI18
tp3937
a(I01
I1
tp3938
asg32
Nsbsg33
I2
sg34
F20.0
sbs(g8
S'why'
p3939
tp3940
g0
(g14
g2
Ntp3941
Rp3942
(dp3943
g18
F0.5
sg19
I19
sg20
g0
(g21
g22
(dp3944
I01
I1
sNI18
stp3945
Rp3946
(dp3947
g19
I19
sg27
Nsg28
(lp3948
(NI18
tp3949
a(I01
I1
tp3950
asg32
Nsbsg33
I2
sg34
F20.0
sbs(g9
g3341
tp3951
g0
(g14
g2
Ntp3952
Rp3953
(dp3954
g18
F0.5
sg19
I17
sg20
g0
(g21
g22
(dp3955
I01
I1
sNI16
stp3956
Rp3957
(dp3958
g19
I17
sg27
Nsg28
(lp3959
(NI16
tp3960
a(I01
I1
tp3961
asg32
Nsbsg33
I2
sg34
F18.0
sbs(g8
g1553
tp3962
g0
(g14
g2
Ntp3963
Rp3964
(dp3965
g18
F0.5
sg19
I19
sg20
g0
(g21
g22
(dp3966
NI19
stp3967
Rp3968
(dp3969
g19
I19
sg27
Nsg28
(lp3970
(NI19
tp3971
asg32
Nsbsg33
I2
sg34
F20.0
sbs(g9
S'anatomy.'
p3972
tp3973
g0
(g14
g2
Ntp3974
Rp3975
(dp3976
g18
F0.5
sg19
I17
sg20
g0
(g21
g22
(dp3977
NI17
stp3978
Rp3979
(dp3980
g19
I17
sg27
Nsg28
(lp3981
(NI17
tp3982
asg32
Nsbsg33
I2
sg34
F18.0
sbs(g8
S'good."'
p3983
tp3984
g0
(g14
g2
Ntp3985
Rp3986
(dp3987
g18
F0.5
sg19
I19
sg20
g0
(g21
g22
(dp3988
I01
I1
sNI18
stp3989
Rp3990
(dp3991
g19
I19
sg27
Nsg28
(lp3992
(NI18
tp3993
a(I01
I1
tp3994
asg32
Nsbsg33
I2
sg34
F20.0
sbs(g8
g3972
tp3995
g0
(g14
g2
Ntp3996
Rp3997
(dp3998
g18
F0.5
sg19
I19
sg20
g0
(g21
g22
(dp3999
I01
I1
sNI18
stp4000
Rp4001
(dp4002
g19
I19
sg27
Nsg28
(lp4003
(NI18
tp4004
a(I01
I1
tp4005
asg32
Nsbsg33
I2
sg34
F20.0
sbs(g9
g656
tp4006
g0
(g14
g2
Ntp4007
Rp4008
(dp4009
g18
F0.5
sg19
I17
sg20
g0
(g21
g22
(dp4010
I01
I1
sNI16
stp4011
Rp4012
(dp4013
g19
I17
sg27
Nsg28
(lp4014
(NI16
tp4015
a(I01
I1
tp4016
asg32
Nsbsg33
I2
sg34
F18.0
sbs(g9
g392
tp4017
g0
(g14
g2
Ntp4018
Rp4019
(dp4020
g18
F0.5
sg19
I17
sg20
g0
(g21
g22
(dp4021
NI17
stp4022
Rp4023
(dp4024
g19
I17
sg27
Nsg28
(lp4025
(NI17
tp4026
asg32
Nsbsg33
I2
sg34
F18.0
sbs(g9
S'outside'
p4027
tp4028
g0
(g14
g2
Ntp4029
Rp4030
(dp4031
g18
F0.5
sg19
I17
sg20
g0
(g21
g22
(dp4032
I01
I1
sNI16
stp4033
Rp4034
(dp4035
g19
I17
sg27
Nsg28
(lp4036
(NI16
tp4037
a(I01
I1
tp4038
asg32
Nsbsg33
I2
sg34
F18.0
sbs(g9
g1103
tp4039
g0
(g14
g2
Ntp4040
Rp4041
(dp4042
g18
F0.5
sg19
I17
sg20
g0
(g21
g22
(dp4043
I01
I1
sNI16
stp4044
Rp4045
(dp4046
g19
I17
sg27
Nsg28
(lp4047
(NI16
tp4048
a(I01
I1
tp4049
asg32
Nsbsg33
I2
sg34
F18.0
sbs(g9
S"hawai'i."
p4050
tp4051
g0
(g14
g2
Ntp4052
Rp4053
(dp4054
g18
F0.5
sg19
I17
sg20
g0
(g21
g22
(dp4055
I01
I1
sNI16
stp4056
Rp4057
(dp4058
g19
I17
sg27
Nsg28
(lp4059
(NI16
tp4060
a(I01
I1
tp4061
asg32
Nsbsg33
I2
sg34
F18.0
sbs(g8
S'free'
p4062
tp4063
g0
(g14
g2
Ntp4064
Rp4065
(dp4066
g18
F0.5
sg19
I19
sg20
g0
(g21
g22
(dp4067
I01
I1
sNI18
stp4068
Rp4069
(dp4070
g19
I19
sg27
Nsg28
(lp4071
(NI18
tp4072
a(I01
I1
tp4073
asg32
Nsbsg33
I2
sg34
F20.0
sbs(g8
g3452
tp4074
g0
(g14
g2
Ntp4075
Rp4076
(dp4077
g18
F0.5
sg19
I19
sg20
g0
(g21
g22
(dp4078
I01
I1
sNI18
stp4079
Rp4080
(dp4081
g19
I19
sg27
Nsg28
(lp4082
(NI18
tp4083
a(I01
I1
tp4084
asg32
Nsbsg33
I2
sg34
F20.0
sbs(g9
S'you'
p4085
tp4086
g0
(g14
g2
Ntp4087
Rp4088
(dp4089
g18
F0.5
sg19
I17
sg20
g0
(g21
g22
(dp4090
I01
I1
sNI16
stp4091
Rp4092
(dp4093
g19
I17
sg27
Nsg28
(lp4094
(NI16
tp4095
a(I01
I1
tp4096
asg32
Nsbsg33
I2
sg34
F18.0
sbs(g9
g783
tp4097
g0
(g14
g2
Ntp4098
Rp4099
(dp4100
g18
F0.5
sg19
I17
sg20
g0
(g21
g22
(dp4101
NI17
stp4102
Rp4103
(dp4104
g19
I17
sg27
Nsg28
(lp4105
(NI17
tp4106
asg32
Nsbsg33
I2
sg34
F18.0
sbs(g8
S'tea.'
p4107
tp4108
g0
(g14
g2
Ntp4109
Rp4110
(dp4111
g18
F0.5
sg19
I19
sg20
g0
(g21
g22
(dp4112
NI19
stp4113
Rp4114
(dp4115
g19
I19
sg27
Nsg28
(lp4116
(NI19
tp4117
asg32
Nsbsg33
I2
sg34
F20.0
sbs(g8
S'head'
p4118
tp4119
g0
(g14
g2
Ntp4120
Rp4121
(dp4122
g18
F0.5
sg19
I19
sg20
g0
(g21
g22
(dp4123
I01
I1
sNI18
stp4124
Rp4125
(dp4126
g19
I19
sg27
Nsg28
(lp4127
(NI18
tp4128
a(I01
I1
tp4129
asg32
Nsbsg33
I2
sg34
F20.0
sbs(g9
g2941
tp4130
g0
(g14
g2
Ntp4131
Rp4132
(dp4133
g18
F0.5
sg19
I17
sg20
g0
(g21
g22
(dp4134
I01
I1
sNI16
stp4135
Rp4136
(dp4137
g19
I17
sg27
Nsg28
(lp4138
(NI16
tp4139
a(I01
I1
tp4140
asg32
Nsbsg33
I2
sg34
F18.0
sbs(g8
S'having'
p4141
tp4142
g0
(g14
g2
Ntp4143
Rp4144
(dp4145
g18
F0.5
sg19
I19
sg20
g0
(g21
g22
(dp4146
NI19
stp4147
Rp4148
(dp4149
g19
I19
sg27
Nsg28
(lp4150
(NI19
tp4151
asg32
Nsbsg33
I2
sg34
F20.0
sbs(g8
g2262
tp4152
g0
(g14
g2
Ntp4153
Rp4154
(dp4155
g18
F0.5
sg19
I19
sg20
g0
(g21
g22
(dp4156
I01
I4
sNI15
stp4157
Rp4158
(dp4159
g19
I19
sg27
Nsg28
(lp4160
(NI15
tp4161
a(I01
I4
tp4162
asg32
Nsbsg33
I2
sg34
F20.0
sbs(g8
S'garden'
p4163
tp4164
g0
(g14
g2
Ntp4165
Rp4166
(dp4167
g18
F0.5
sg19
I19
sg20
g0
(g21
g22
(dp4168
I01
I1
sNI18
stp4169
Rp4170
(dp4171
g19
I19
sg27
Nsg28
(lp4172
(NI18
tp4173
a(I01
I1
tp4174
asg32
Nsbsg33
I2
sg34
F20.0
sbs(g8
g2140
tp4175
g0
(g14
g2
Ntp4176
Rp4177
(dp4178
g18
F0.5
sg19
I19
sg20
g0
(g21
g22
(dp4179
I01
I1
sNI18
stp4180
Rp4181
(dp4182
g19
I19
sg27
Nsg28
(lp4183
(NI18
tp4184
a(I01
I1
tp4185
asg32
Nsbsg33
I2
sg34
F20.0
sbs(g8
g875
tp4186
g0
(g14
g2
Ntp4187
Rp4188
(dp4189
g18
F0.5
sg19
I19
sg20
g0
(g21
g22
(dp4190
I01
I3
sNI16
stp4191
Rp4192
(dp4193
g19
I19
sg27
Nsg28
(lp4194
(NI16
tp4195
a(I01
I3
tp4196
asg32
Nsbsg33
I2
sg34
F20.0
sbs(g9
S'in'
p4197
tp4198
g0
(g14
g2
Ntp4199
Rp4200
(dp4201
g18
F0.5
sg19
I17
sg20
g0
(g21
g22
(dp4202
I01
I2
sNI15
stp4203
Rp4204
(dp4205
g19
I17
sg27
Nsg28
(lp4206
(NI15
tp4207
a(I01
I2
tp4208
asg32
Nsbsg33
I2
sg34
F18.0
sbs(g9
S'french'
p4209
tp4210
g0
(g14
g2
Ntp4211
Rp4212
(dp4213
g18
F0.5
sg19
I17
sg20
g0
(g21
g22
(dp4214
I01
I1
sNI16
stp4215
Rp4216
(dp4217
g19
I17
sg27
Nsg28
(lp4218
(NI16
tp4219
a(I01
I1
tp4220
asg32
Nsbsg33
I2
sg34
F18.0
sbs(g8
S'down'
p4221
tp4222
g0
(g14
g2
Ntp4223
Rp4224
(dp4225
g18
F0.5
sg19
I19
sg20
g0
(g21
g22
(dp4226
NI19
stp4227
Rp4228
(dp4229
g19
I19
sg27
Nsg28
(lp4230
(NI19
tp4231
asg32
Nsbsg33
I2
sg34
F20.0
sbs(g9
g2910
tp4232
g0
(g14
g2
Ntp4233
Rp4234
(dp4235
g18
F0.5
sg19
I17
sg20
g0
(g21
g22
(dp4236
I01
I2
sNI15
stp4237
Rp4238
(dp4239
g19
I17
sg27
Nsg28
(lp4240
(NI15
tp4241
a(I01
I2
tp4242
asg32
Nsbsg33
I2
sg34
F18.0
sbs(g8
g2823
tp4243
g0
(g14
g2
Ntp4244
Rp4245
(dp4246
g18
F0.5
sg19
I19
sg20
g0
(g21
g22
(dp4247
I01
I1
sNI18
stp4248
Rp4249
(dp4250
g19
I19
sg27
Nsg28
(lp4251
(NI18
tp4252
a(I01
I1
tp4253
asg32
Nsbsg33
I2
sg34
F20.0
sbs(g9
S'museum'
p4254
tp4255
g0
(g14
g2
Ntp4256
Rp4257
(dp4258
g18
F0.5
sg19
I17
sg20
g0
(g21
g22
(dp4259
NI17
stp4260
Rp4261
(dp4262
g19
I17
sg27
Nsg28
(lp4263
(NI17
tp4264
asg32
Nsbsg33
I2
sg34
F18.0
sbs(g9
S'and'
p4265
tp4266
g0
(g14
g2
Ntp4267
Rp4268
(dp4269
g18
F0.5
sg19
I17
sg20
g0
(g21
g22
(dp4270
I01
I6
sNI11
stp4271
Rp4272
(dp4273
g19
I17
sg27
Nsg28
(lp4274
(NI11
tp4275
a(I01
I6
tp4276
asg32
Nsbsg33
I2
sg34
F18.0
sbs(g8
g3658
tp4277
g0
(g14
g2
Ntp4278
Rp4279
(dp4280
g18
F0.5
sg19
I19
sg20
g0
(g21
g22
(dp4281
I01
I1
sNI18
stp4282
Rp4283
(dp4284
g19
I19
sg27
Nsg28
(lp4285
(NI18
tp4286
a(I01
I1
tp4287
asg32
Nsbsg33
I2
sg34
F20.0
sbs(g8
g3009
tp4288
g0
(g14
g2
Ntp4289
Rp4290
(dp4291
g18
F0.5
sg19
I19
sg20
g0
(g21
g22
(dp4292
NI19
stp4293
Rp4294
(dp4295
g19
I19
sg27
Nsg28
(lp4296
(NI19
tp4297
asg32
Nsbsg33
I2
sg34
F20.0
sbs(g8
S'in'
p4298
tp4299
g0
(g14
g2
Ntp4300
Rp4301
(dp4302
g18
F0.5
sg19
I19
sg20
g0
(g21
g22
(dp4303
I01
I6
sNI13
stp4304
Rp4305
(dp4306
g19
I19
sg27
Nsg28
(lp4307
(NI13
tp4308
a(I01
I6
tp4309
asg32
Nsbsg33
I2
sg34
F20.0
sbs(g9
S'holy'
p4310
tp4311
g0
(g14
g2
Ntp4312
Rp4313
(dp4314
g18
F0.5
sg19
I17
sg20
g0
(g21
g22
(dp4315
NI17
stp4316
Rp4317
(dp4318
g19
I17
sg27
Nsg28
(lp4319
(NI17
tp4320
asg32
Nsbsg33
I2
sg34
F18.0
sbs(g9
S'honor'
p4321
tp4322
g0
(g14
g2
Ntp4323
Rp4324
(dp4325
g18
F0.5
sg19
I17
sg20
g0
(g21
g22
(dp4326
I01
I1
sNI16
stp4327
Rp4328
(dp4329
g19
I17
sg27
Nsg28
(lp4330
(NI16
tp4331
a(I01
I1
tp4332
asg32
Nsbsg33
I2
sg34
F18.0
sbs(g8
S'end'
p4333
tp4334
g0
(g14
g2
Ntp4335
Rp4336
(dp4337
g18
F0.5
sg19
I19
sg20
g0
(g21
g22
(dp4338
I01
I2
sNI17
stp4339
Rp4340
(dp4341
g19
I19
sg27
Nsg28
(lp4342
(NI17
tp4343
a(I01
I2
tp4344
asg32
Nsbsg33
I2
sg34
F20.0
sbs(g8
g1529
tp4345
g0
(g14
g2
Ntp4346
Rp4347
(dp4348
g18
F0.5
sg19
I19
sg20
g0
(g21
g22
(dp4349
NI19
stp4350
Rp4351
(dp4352
g19
I19
sg27
Nsg28
(lp4353
(NI19
tp4354
asg32
Nsbsg33
I2
sg34
F20.0
sbs(g9
S'do'
p4355
tp4356
g0
(g14
g2
Ntp4357
Rp4358
(dp4359
g18
F0.5
sg19
I17
sg20
g0
(g21
g22
(dp4360
NI17
stp4361
Rp4362
(dp4363
g19
I17
sg27
Nsg28
(lp4364
(NI17
tp4365
asg32
Nsbsg33
I2
sg34
F18.0
sbs(g9
g712
tp4366
g0
(g14
g2
Ntp4367
Rp4368
(dp4369
g18
F0.5
sg19
I17
sg20
g0
(g21
g22
(dp4370
NI17
stp4371
Rp4372
(dp4373
g19
I17
sg27
Nsg28
(lp4374
(NI17
tp4375
asg32
Nsbsg33
I2
sg34
F18.0
sbs(g8
g3570
tp4376
g0
(g14
g2
Ntp4377
Rp4378
(dp4379
g18
F0.5
sg19
I19
sg20
g0
(g21
g22
(dp4380
NI19
stp4381
Rp4382
(dp4383
g19
I19
sg27
Nsg28
(lp4384
(NI19
tp4385
asg32
Nsbsg33
I2
sg34
F20.0
sbs(g9
S'propfemale'
p4386
tp4387
g0
(g14
g2
Ntp4388
Rp4389
(dp4390
g18
F0.5
sg19
I17
sg20
g0
(g21
g22
(dp4391
I01
I2
sNI15
stp4392
Rp4393
(dp4394
g19
I17
sg27
Nsg28
(lp4395
(NI15
tp4396
a(I01
I2
tp4397
asg32
Nsbsg33
I2
sg34
F18.0
sbs(g8
g140
tp4398
g0
(g14
g2
Ntp4399
Rp4400
(dp4401
g18
F0.5
sg19
I19
sg20
g0
(g21
g22
(dp4402
NI19
stp4403
Rp4404
(dp4405
g19
I19
sg27
Nsg28
(lp4406
(NI19
tp4407
asg32
Nsbsg33
I2
sg34
F20.0
sbs(g9
S'15th'
p4408
tp4409
g0
(g14
g2
Ntp4410
Rp4411
(dp4412
g18
F0.5
sg19
I17
sg20
g0
(g21
g22
(dp4413
NI17
stp4414
Rp4415
(dp4416
g19
I17
sg27
Nsg28
(lp4417
(NI17
tp4418
asg32
Nsbsg33
I2
sg34
F18.0
sbs(g8
g4310
tp4419
g0
(g14
g2
Ntp4420
Rp4421
(dp4422
g18
F0.5
sg19
I19
sg20
g0
(g21
g22
(dp4423
I01
I1
sNI18
stp4424
Rp4425
(dp4426
g19
I19
sg27
Nsg28
(lp4427
(NI18
tp4428
a(I01
I1
tp4429
asg32
Nsbsg33
I2
sg34
F20.0
sbs(g9
S'all'
p4430
tp4431
g0
(g14
g2
Ntp4432
Rp4433
(dp4434
g18
F0.5
sg19
I17
sg20
g0
(g21
g22
(dp4435
NI17
stp4436
Rp4437
(dp4438
g19
I17
sg27
Nsg28
(lp4439
(NI17
tp4440
asg32
Nsbsg33
I2
sg34
F18.0
sbs(g8
g1622
tp4441
g0
(g14
g2
Ntp4442
Rp4443
(dp4444
g18
F0.5
sg19
I19
sg20
g0
(g21
g22
(dp4445
I01
I1
sNI18
stp4446
Rp4447
(dp4448
g19
I19
sg27
Nsg28
(lp4449
(NI18
tp4450
a(I01
I1
tp4451
asg32
Nsbsg33
I2
sg34
F20.0
sbs(g8
g348
tp4452
g0
(g14
g2
Ntp4453
Rp4454
(dp4455
g18
F0.5
sg19
I19
sg20
g0
(g21
g22
(dp4456
NI19
stp4457
Rp4458
(dp4459
g19
I19
sg27
Nsg28
(lp4460
(NI19
tp4461
asg32
Nsbsg33
I2
sg34
F20.0
sbs(g9
g1655
tp4462
g0
(g14
g2
Ntp4463
Rp4464
(dp4465
g18
F0.5
sg19
I17
sg20
g0
(g21
g22
(dp4466
I01
I1
sNI16
stp4467
Rp4468
(dp4469
g19
I17
sg27
Nsg28
(lp4470
(NI16
tp4471
a(I01
I1
tp4472
asg32
Nsbsg33
I2
sg34
F18.0
sbs(g8
g2479
tp4473
g0
(g14
g2
Ntp4474
Rp4475
(dp4476
g18
F0.5
sg19
I19
sg20
g0
(g21
g22
(dp4477
NI19
stp4478
Rp4479
(dp4480
g19
I19
sg27
Nsg28
(lp4481
(NI19
tp4482
asg32
Nsbsg33
I2
sg34
F20.0
sbs(g8
S'tx'
p4483
tp4484
g0
(g14
g2
Ntp4485
Rp4486
(dp4487
g18
F0.5
sg19
I19
sg20
g0
(g21
g22
(dp4488
NI19
stp4489
Rp4490
(dp4491
g19
I19
sg27
Nsg28
(lp4492
(NI19
tp4493
asg32
Nsbsg33
I2
sg34
F20.0
sbs(g9
g2738
tp4494
g0
(g14
g2
Ntp4495
Rp4496
(dp4497
g18
F0.5
sg19
I17
sg20
g0
(g21
g22
(dp4498
NI17
stp4499
Rp4500
(dp4501
g19
I17
sg27
Nsg28
(lp4502
(NI17
tp4503
asg32
Nsbsg33
I2
sg34
F18.0
sbs(g8
g1734
tp4504
g0
(g14
g2
Ntp4505
Rp4506
(dp4507
g18
F0.5
sg19
I19
sg20
g0
(g21
g22
(dp4508
I01
I1
sNI18
stp4509
Rp4510
(dp4511
g19
I19
sg27
Nsg28
(lp4512
(NI18
tp4513
a(I01
I1
tp4514
asg32
Nsbsg33
I2
sg34
F20.0
sbs(g9
S'gun'
p4515
tp4516
g0
(g14
g2
Ntp4517
Rp4518
(dp4519
g18
F0.5
sg19
I17
sg20
g0
(g21
g22
(dp4520
NI17
stp4521
Rp4522
(dp4523
g19
I17
sg27
Nsg28
(lp4524
(NI17
tp4525
asg32
Nsbsg33
I2
sg34
F18.0
sbs(g8
S'amused'
p4526
tp4527
g0
(g14
g2
Ntp4528
Rp4529
(dp4530
g18
F0.5
sg19
I19
sg20
g0
(g21
g22
(dp4531
NI19
stp4532
Rp4533
(dp4534
g19
I19
sg27
Nsg28
(lp4535
(NI19
tp4536
asg32
Nsbsg33
I2
sg34
F20.0
sbs(g8
g887
tp4537
g0
(g14
g2
Ntp4538
Rp4539
(dp4540
g18
F0.5
sg19
I19
sg20
g0
(g21
g22
(dp4541
NI19
stp4542
Rp4543
(dp4544
g19
I19
sg27
Nsg28
(lp4545
(NI19
tp4546
asg32
Nsbsg33
I2
sg34
F20.0
sbs(g9
g2624
tp4547
g0
(g14
g2
Ntp4548
Rp4549
(dp4550
g18
F0.5
sg19
I17
sg20
g0
(g21
g22
(dp4551
NI17
stp4552
Rp4553
(dp4554
g19
I17
sg27
Nsg28
(lp4555
(NI17
tp4556
asg32
Nsbsg33
I2
sg34
F18.0
sbs(g9
S'hours'
p4557
tp4558
g0
(g14
g2
Ntp4559
Rp4560
(dp4561
g18
F0.5
sg19
I17
sg20
g0
(g21
g22
(dp4562
I01
I1
sNI16
stp4563
Rp4564
(dp4565
g19
I17
sg27
Nsg28
(lp4566
(NI16
tp4567
a(I01
I1
tp4568
asg32
Nsbsg33
I2
sg34
F18.0
sbs(g8
S'laptop'
p4569
tp4570
g0
(g14
g2
Ntp4571
Rp4572
(dp4573
g18
F0.5
sg19
I19
sg20
g0
(g21
g22
(dp4574
I01
I1
sNI18
stp4575
Rp4576
(dp4577
g19
I19
sg27
Nsg28
(lp4578
(NI18
tp4579
a(I01
I1
tp4580
asg32
Nsbsg33
I2
sg34
F20.0
sbs(g9
g911
tp4581
g0
(g14
g2
Ntp4582
Rp4583
(dp4584
g18
F0.5
sg19
I17
sg20
g0
(g21
g22
(dp4585
I01
I1
sNI16
stp4586
Rp4587
(dp4588
g19
I17
sg27
Nsg28
(lp4589
(NI16
tp4590
a(I01
I1
tp4591
asg32
Nsbsg33
I2
sg34
F18.0
sbs(g9
g3420
tp4592
g0
(g14
g2
Ntp4593
Rp4594
(dp4595
g18
F0.5
sg19
I17
sg20
g0
(g21
g22
(dp4596
I01
I1
sNI16
stp4597
Rp4598
(dp4599
g19
I17
sg27
Nsg28
(lp4600
(NI16
tp4601
a(I01
I1
tp4602
asg32
Nsbsg33
I2
sg34
F18.0
sbs(g8
g2750
tp4603
g0
(g14
g2
Ntp4604
Rp4605
(dp4606
g18
F0.5
sg19
I19
sg20
g0
(g21
g22
(dp4607
I01
I1
sNI18
stp4608
Rp4609
(dp4610
g19
I19
sg27
Nsg28
(lp4611
(NI18
tp4612
a(I01
I1
tp4613
asg32
Nsbsg33
I2
sg34
F20.0
sbs(g8
g1802
tp4614
g0
(g14
g2
Ntp4615
Rp4616
(dp4617
g18
F0.5
sg19
I19
sg20
g0
(g21
g22
(dp4618
I01
I1
sNI18
stp4619
Rp4620
(dp4621
g19
I19
sg27
Nsg28
(lp4622
(NI18
tp4623
a(I01
I1
tp4624
asg32
Nsbsg33
I2
sg34
F20.0
sbs(g8
g1779
tp4625
g0
(g14
g2
Ntp4626
Rp4627
(dp4628
g18
F0.5
sg19
I19
sg20
g0
(g21
g22
(dp4629
NI19
stp4630
Rp4631
(dp4632
g19
I19
sg27
Nsg28
(lp4633
(NI19
tp4634
asg32
Nsbsg33
I2
sg34
F20.0
sbs(g8
g1312
tp4635
g0
(g14
g2
Ntp4636
Rp4637
(dp4638
g18
F0.5
sg19
I19
sg20
g0
(g21
g22
(dp4639
I01
I1
sNI18
stp4640
Rp4641
(dp4642
g19
I19
sg27
Nsg28
(lp4643
(NI18
tp4644
a(I01
I1
tp4645
asg32
Nsbsg33
I2
sg34
F20.0
sbs(g8
g2834
tp4646
g0
(g14
g2
Ntp4647
Rp4648
(dp4649
g18
F0.5
sg19
I19
sg20
g0
(g21
g22
(dp4650
NI19
stp4651
Rp4652
(dp4653
g19
I19
sg27
Nsg28
(lp4654
(NI19
tp4655
asg32
Nsbsg33
I2
sg34
F20.0
sbs(g9
g2889
tp4656
g0
(g14
g2
Ntp4657
Rp4658
(dp4659
g18
F0.5
sg19
I17
sg20
g0
(g21
g22
(dp4660
I01
I1
sNI16
stp4661
Rp4662
(dp4663
g19
I17
sg27
Nsg28
(lp4664
(NI16
tp4665
a(I01
I1
tp4666
asg32
Nsbsg33
I2
sg34
F18.0
sbs(g9
g4118
tp4667
g0
(g14
g2
Ntp4668
Rp4669
(dp4670
g18
F0.5
sg19
I17
sg20
g0
(g21
g22
(dp4671
NI17
stp4672
Rp4673
(dp4674
g19
I17
sg27
Nsg28
(lp4675
(NI17
tp4676
asg32
Nsbsg33
I2
sg34
F18.0
sbs(g8
g4050
tp4677
g0
(g14
g2
Ntp4678
Rp4679
(dp4680
g18
F0.5
sg19
I19
sg20
g0
(g21
g22
(dp4681
NI19
stp4682
Rp4683
(dp4684
g19
I19
sg27
Nsg28
(lp4685
(NI19
tp4686
asg32
Nsbsg33
I2
sg34
F20.0
sbs(g8
g460
tp4687
g0
(g14
g2
Ntp4688
Rp4689
(dp4690
g18
F0.5
sg19
I19
sg20
g0
(g21
g22
(dp4691
NI19
stp4692
Rp4693
(dp4694
g19
I19
sg27
Nsg28
(lp4695
(NI19
tp4696
asg32
Nsbsg33
I2
sg34
F20.0
sbs(g9
S'with'
p4697
tp4698
g0
(g14
g2
Ntp4699
Rp4700
(dp4701
g18
F0.5
sg19
I17
sg20
g0
(g21
g22
(dp4702
I01
I3
sNI14
stp4703
Rp4704
(dp4705
g19
I17
sg27
Nsg28
(lp4706
(NI14
tp4707
a(I01
I3
tp4708
asg32
Nsbsg33
I2
sg34
F18.0
sbs(g8
S'friday'
p4709
tp4710
g0
(g14
g2
Ntp4711
Rp4712
(dp4713
g18
F0.5
sg19
I19
sg20
g0
(g21
g22
(dp4714
NI19
stp4715
Rp4716
(dp4717
g19
I19
sg27
Nsg28
(lp4718
(NI19
tp4719
asg32
Nsbsg33
I2
sg34
F20.0
sbs(g9
g3090
tp4720
g0
(g14
g2
Ntp4721
Rp4722
(dp4723
g18
F0.5
sg19
I17
sg20
g0
(g21
g22
(dp4724
NI17
stp4725
Rp4726
(dp4727
g19
I17
sg27
Nsg28
(lp4728
(NI17
tp4729
asg32
Nsbsg33
I2
sg34
F18.0
sbs(g8
g3408
tp4730
g0
(g14
g2
Ntp4731
Rp4732
(dp4733
g18
F0.5
sg19
I19
sg20
g0
(g21
g22
(dp4734
NI19
stp4735
Rp4736
(dp4737
g19
I19
sg27
Nsg28
(lp4738
(NI19
tp4739
asg32
Nsbsg33
I2
sg34
F20.0
sbs(g8
g507
tp4740
g0
(g14
g2
Ntp4741
Rp4742
(dp4743
g18
F0.5
sg19
I19
sg20
g0
(g21
g22
(dp4744
NI19
stp4745
Rp4746
(dp4747
g19
I19
sg27
Nsg28
(lp4748
(NI19
tp4749
asg32
Nsbsg33
I2
sg34
F20.0
sbs(g9
S'leaving'
p4750
tp4751
g0
(g14
g2
Ntp4752
Rp4753
(dp4754
g18
F0.5
sg19
I17
sg20
g0
(g21
g22
(dp4755
NI17
stp4756
Rp4757
(dp4758
g19
I17
sg27
Nsg28
(lp4759
(NI17
tp4760
asg32
Nsbsg33
I2
sg34
F18.0
sbs(g9
g4221
tp4761
g0
(g14
g2
Ntp4762
Rp4763
(dp4764
g18
F0.5
sg19
I17
sg20
g0
(g21
g22
(dp4765
I01
I1
sNI16
stp4766
Rp4767
(dp4768
g19
I17
sg27
Nsg28
(lp4769
(NI16
tp4770
a(I01
I1
tp4771
asg32
Nsbsg33
I2
sg34
F18.0
sbs(g9
S'promised'
p4772
tp4773
g0
(g14
g2
Ntp4774
Rp4775
(dp4776
g18
F0.5
sg19
I17
sg20
g0
(g21
g22
(dp4777
I01
I1
sNI16
stp4778
Rp4779
(dp4780
g19
I17
sg27
Nsg28
(lp4781
(NI16
tp4782
a(I01
I1
tp4783
asg32
Nsbsg33
I2
sg34
F18.0
sbs(g9
g701
tp4784
g0
(g14
g2
Ntp4785
Rp4786
(dp4787
g18
F0.5
sg19
I17
sg20
g0
(g21
g22
(dp4788
I01
I1
sNI16
stp4789
Rp4790
(dp4791
g19
I17
sg27
Nsg28
(lp4792
(NI16
tp4793
a(I01
I1
tp4794
asg32
Nsbsg33
I2
sg34
F18.0
sbs(g8
g3463
tp4795
g0
(g14
g2
Ntp4796
Rp4797
(dp4798
g18
F0.5
sg19
I19
sg20
g0
(g21
g22
(dp4799
I01
I13
sNI6
stp4800
Rp4801
(dp4802
g19
I19
sg27
Nsg28
(lp4803
(I01
I13
tp4804
a(NI6
tp4805
asg32
Nsbsg33
I2
sg34
F20.0
sbs(g9
g3329
tp4806
g0
(g14
g2
Ntp4807
Rp4808
(dp4809
g18
F0.5
sg19
I17
sg20
g0
(g21
g22
(dp4810
NI17
stp4811
Rp4812
(dp4813
g19
I17
sg27
Nsg28
(lp4814
(NI17
tp4815
asg32
Nsbsg33
I2
sg34
F18.0
sbs(g8
g724
tp4816
g0
(g14
g2
Ntp4817
Rp4818
(dp4819
g18
F0.5
sg19
I19
sg20
g0
(g21
g22
(dp4820
NI19
stp4821
Rp4822
(dp4823
g19
I19
sg27
Nsg28
(lp4824
(NI19
tp4825
asg32
Nsbsg33
I2
sg34
F20.0
sbs(g9
S's.'
p4826
tp4827
g0
(g14
g2
Ntp4828
Rp4829
(dp4830
g18
F0.5
sg19
I17
sg20
g0
(g21
g22
(dp4831
NI17
stp4832
Rp4833
(dp4834
g19
I17
sg27
Nsg28
(lp4835
(NI17
tp4836
asg32
Nsbsg33
I2
sg34
F18.0
sbs(g8
g495
tp4837
g0
(g14
g2
Ntp4838
Rp4839
(dp4840
g18
F0.5
sg19
I19
sg20
g0
(g21
g22
(dp4841
NI19
stp4842
Rp4843
(dp4844
g19
I19
sg27
Nsg28
(lp4845
(NI19
tp4846
asg32
Nsbsg33
I2
sg34
F20.0
sbs(g9
S'family'
p4847
tp4848
g0
(g14
g2
Ntp4849
Rp4850
(dp4851
g18
F0.5
sg19
I17
sg20
g0
(g21
g22
(dp4852
I01
I1
sNI16
stp4853
Rp4854
(dp4855
g19
I17
sg27
Nsg28
(lp4856
(NI16
tp4857
a(I01
I1
tp4858
asg32
Nsbsg33
I2
sg34
F18.0
sbs(g8
g4321
tp4859
g0
(g14
g2
Ntp4860
Rp4861
(dp4862
g18
F0.5
sg19
I19
sg20
g0
(g21
g22
(dp4863
NI19
stp4864
Rp4865
(dp4866
g19
I19
sg27
Nsg28
(lp4867
(NI19
tp4868
asg32
Nsbsg33
I2
sg34
F20.0
sbs(g8
g3537
tp4869
g0
(g14
g2
Ntp4870
Rp4871
(dp4872
g18
F0.5
sg19
I19
sg20
g0
(g21
g22
(dp4873
I01
I1
sNI18
stp4874
Rp4875
(dp4876
g19
I19
sg27
Nsg28
(lp4877
(NI18
tp4878
a(I01
I1
tp4879
asg32
Nsbsg33
I2
sg34
F20.0
sbs(g9
g4107
tp4880
g0
(g14
g2
Ntp4881
Rp4882
(dp4883
g18
F0.5
sg19
I17
sg20
g0
(g21
g22
(dp4884
I01
I1
sNI16
stp4885
Rp4886
(dp4887
g19
I17
sg27
Nsg28
(lp4888
(NI16
tp4889
a(I01
I1
tp4890
asg32
Nsbsg33
I2
sg34
F18.0
sbs(g9
g2072
tp4891
g0
(g14
g2
Ntp4892
Rp4893
(dp4894
g18
F0.5
sg19
I17
sg20
g0
(g21
g22
(dp4895
I01
I8
sNI9
stp4896
Rp4897
(dp4898
g19
I17
sg27
Nsg28
(lp4899
(NI9
tp4900
a(I01
I8
tp4901
asg32
Nsbsg33
I2
sg34
F18.0
sbs(g9
g1995
tp4902
g0
(g14
g2
Ntp4903
Rp4904
(dp4905
g18
F0.5
sg19
I17
sg20
g0
(g21
g22
(dp4906
I01
I1
sNI16
stp4907
Rp4908
(dp4909
g19
I17
sg27
Nsg28
(lp4910
(NI16
tp4911
a(I01
I1
tp4912
asg32
Nsbsg33
I2
sg34
F18.0
sbs(g8
S'be'
p4913
tp4914
g0
(g14
g2
Ntp4915
Rp4916
(dp4917
g18
F0.5
sg19
I19
sg20
g0
(g21
g22
(dp4918
I01
I5
sNI14
stp4919
Rp4920
(dp4921
g19
I19
sg27
Nsg28
(lp4922
(NI14
tp4923
a(I01
I5
tp4924
asg32
Nsbsg33
I2
sg34
F20.0
sbs(g8
S'read'
p4925
tp4926
g0
(g14
g2
Ntp4927
Rp4928
(dp4929
g18
F0.5
sg19
I19
sg20
g0
(g21
g22
(dp4930
NI19
stp4931
Rp4932
(dp4933
g19
I19
sg27
Nsg28
(lp4934
(NI19
tp4935
asg32
Nsbsg33
I2
sg34
F20.0
sbs(g8
g3112
tp4936
g0
(g14
g2
Ntp4937
Rp4938
(dp4939
g18
F0.5
sg19
I19
sg20
g0
(g21
g22
(dp4940
I01
I1
sNI18
stp4941
Rp4942
(dp4943
g19
I19
sg27
Nsg28
(lp4944
(NI18
tp4945
a(I01
I1
tp4946
asg32
Nsbsg33
I2
sg34
F20.0
sbs(g8
g2274
tp4947
g0
(g14
g2
Ntp4948
Rp4949
(dp4950
g18
F0.5
sg19
I19
sg20
g0
(g21
g22
(dp4951
NI19
stp4952
Rp4953
(dp4954
g19
I19
sg27
Nsg28
(lp4955
(NI19
tp4956
asg32
Nsbsg33
I2
sg34
F20.0
sbs(g8
g2172
tp4957
g0
(g14
g2
Ntp4958
Rp4959
(dp4960
g18
F0.5
sg19
I19
sg20
g0
(g21
g22
(dp4961
I01
I1
sNI18
stp4962
Rp4963
(dp4964
g19
I19
sg27
Nsg28
(lp4965
(NI18
tp4966
a(I01
I1
tp4967
asg32
Nsbsg33
I2
sg34
F20.0
sbs(g8
g4408
tp4968
g0
(g14
g2
Ntp4969
Rp4970
(dp4971
g18
F0.5
sg19
I19
sg20
g0
(g21
g22
(dp4972
I01
I1
sNI18
stp4973
Rp4974
(dp4975
g19
I19
sg27
Nsg28
(lp4976
(NI18
tp4977
a(I01
I1
tp4978
asg32
Nsbsg33
I2
sg34
F20.0
sbs(g8
g1848
tp4979
g0
(g14
g2
Ntp4980
Rp4981
(dp4982
g18
F0.5
sg19
I19
sg20
g0
(g21
g22
(dp4983
NI19
stp4984
Rp4985
(dp4986
g19
I19
sg27
Nsg28
(lp4987
(NI19
tp4988
asg32
Nsbsg33
I2
sg34
F20.0
sbs(g9
g1505
tp4989
g0
(g14
g2
Ntp4990
Rp4991
(dp4992
g18
F0.5
sg19
I17
sg20
g0
(g21
g22
(dp4993
NI17
stp4994
Rp4995
(dp4996
g19
I17
sg27
Nsg28
(lp4997
(NI17
tp4998
asg32
Nsbsg33
I2
sg34
F18.0
sbs(g9
g4333
tp4999
g0
(g14
g2
Ntp5000
Rp5001
(dp5002
g18
F0.5
sg19
I17
sg20
g0
(g21
g22
(dp5003
NI17
stp5004
Rp5005
(dp5006
g19
I17
sg27
Nsg28
(lp5007
(NI17
tp5008
asg32
Nsbsg33
I2
sg34
F18.0
sbs(g9
g2330
tp5009
g0
(g14
g2
Ntp5010
Rp5011
(dp5012
g18
F0.5
sg19
I17
sg20
g0
(g21
g22
(dp5013
NI17
stp5014
Rp5015
(dp5016
g19
I17
sg27
Nsg28
(lp5017
(NI17
tp5018
asg32
Nsbsg33
I2
sg34
F18.0
sbs(g8
g1254
tp5019
g0
(g14
g2
Ntp5020
Rp5021
(dp5022
g18
F0.5
sg19
I19
sg20
g0
(g21
g22
(dp5023
NI19
stp5024
Rp5025
(dp5026
g19
I19
sg27
Nsg28
(lp5027
(NI19
tp5028
asg32
Nsbsg33
I2
sg34
F20.0
sbs(g8
g1414
tp5029
g0
(g14
g2
Ntp5030
Rp5031
(dp5032
g18
F0.5
sg19
I19
sg20
g0
(g21
g22
(dp5033
I01
I1
sNI18
stp5034
Rp5035
(dp5036
g19
I19
sg27
Nsg28
(lp5037
(NI18
tp5038
a(I01
I1
tp5039
asg32
Nsbsg33
I2
sg34
F20.0
sbs(g8
g1380
tp5040
g0
(g14
g2
Ntp5041
Rp5042
(dp5043
g18
F0.5
sg19
I19
sg20
g0
(g21
g22
(dp5044
I01
I1
sNI18
stp5045
Rp5046
(dp5047
g19
I19
sg27
Nsg28
(lp5048
(NI18
tp5049
a(I01
I1
tp5050
asg32
Nsbsg33
I2
sg34
F20.0
sbs(g9
g4141
tp5051
g0
(g14
g2
Ntp5052
Rp5053
(dp5054
g18
F0.5
sg19
I17
sg20
g0
(g21
g22
(dp5055
I01
I1
sNI16
stp5056
Rp5057
(dp5058
g19
I17
sg27
Nsg28
(lp5059
(NI16
tp5060
a(I01
I1
tp5061
asg32
Nsbsg33
I2
sg34
F18.0
sbs(g9
g2119
tp5062
g0
(g14
g2
Ntp5063
Rp5064
(dp5065
g18
F0.5
sg19
I17
sg20
g0
(g21
g22
(dp5066
I01
I1
sNI16
stp5067
Rp5068
(dp5069
g19
I17
sg27
Nsg28
(lp5070
(NI16
tp5071
a(I01
I1
tp5072
asg32
Nsbsg33
I2
sg34
F18.0
sbs(g9
g2217
tp5073
g0
(g14
g2
Ntp5074
Rp5075
(dp5076
g18
F0.5
sg19
I17
sg20
g0
(g21
g22
(dp5077
NI17
stp5078
Rp5079
(dp5080
g19
I17
sg27
Nsg28
(lp5081
(NI17
tp5082
asg32
Nsbsg33
I2
sg34
F18.0
sbs(g8
g92
tp5083
g0
(g14
g2
Ntp5084
Rp5085
(dp5086
g18
F0.5
sg19
I19
sg20
g0
(g21
g22
(dp5087
NI19
stp5088
Rp5089
(dp5090
g19
I19
sg27
Nsg28
(lp5091
(NI19
tp5092
asg32
Nsbsg33
I2
sg34
F20.0
sbs(g8
g4515
tp5093
g0
(g14
g2
Ntp5094
Rp5095
(dp5096
g18
F0.5
sg19
I19
sg20
g0
(g21
g22
(dp5097
I01
I1
sNI18
stp5098
Rp5099
(dp5100
g19
I19
sg27
Nsg28
(lp5101
(NI18
tp5102
a(I01
I1
tp5103
asg32
Nsbsg33
I2
sg34
F20.0
sbs(g9
g852
tp5104
g0
(g14
g2
Ntp5105
Rp5106
(dp5107
g18
F0.5
sg19
I17
sg20
g0
(g21
g22
(dp5108
I01
I1
sNI16
stp5109
Rp5110
(dp5111
g19
I17
sg27
Nsg28
(lp5112
(NI16
tp5113
a(I01
I1
tp5114
asg32
Nsbsg33
I2
sg34
F18.0
sbs(g9
S'nothing'
p5115
tp5116
g0
(g14
g2
Ntp5117
Rp5118
(dp5119
g18
F0.5
sg19
I17
sg20
g0
(g21
g22
(dp5120
I01
I1
sNI16
stp5121
Rp5122
(dp5123
g19
I17
sg27
Nsg28
(lp5124
(NI16
tp5125
a(I01
I1
tp5126
asg32
Nsbsg33
I2
sg34
F18.0
sbs(g9
S'propmale'
p5127
tp5128
g0
(g14
g2
Ntp5129
Rp5130
(dp5131
g18
F0.5
sg19
I17
sg20
g0
(g21
g22
(dp5132
I01
I1
sNI16
stp5133
Rp5134
(dp5135
g19
I17
sg27
Nsg28
(lp5136
(NI16
tp5137
a(I01
I1
tp5138
asg32
Nsbsg33
I2
sg34
F18.0
sbs(g9
g185
tp5139
g0
(g14
g2
Ntp5140
Rp5141
(dp5142
g18
F0.5
sg19
I17
sg20
g0
(g21
g22
(dp5143
NI17
stp5144
Rp5145
(dp5146
g19
I17
sg27
Nsg28
(lp5147
(NI17
tp5148
asg32
Nsbsg33
I2
sg34
F18.0
sbs(g9
g3295
tp5149
g0
(g14
g2
Ntp5150
Rp5151
(dp5152
g18
F0.5
sg19
I17
sg20
g0
(g21
g22
(dp5153
NI17
stp5154
Rp5155
(dp5156
g19
I17
sg27
Nsg28
(lp5157
(NI17
tp5158
asg32
Nsbsg33
I2
sg34
F18.0
sbs(g8
g2354
tp5159
g0
(g14
g2
Ntp5160
Rp5161
(dp5162
g18
F0.5
sg19
I19
sg20
g0
(g21
g22
(dp5163
NI19
stp5164
Rp5165
(dp5166
g19
I19
sg27
Nsg28
(lp5167
(NI19
tp5168
asg32
Nsbsg33
I2
sg34
F20.0
sbs(g9
g1837
tp5169
g0
(g14
g2
Ntp5170
Rp5171
(dp5172
g18
F0.5
sg19
I17
sg20
g0
(g21
g22
(dp5173
I01
I1
sNI16
stp5174
Rp5175
(dp5176
g19
I17
sg27
Nsg28
(lp5177
(NI16
tp5178
a(I01
I1
tp5179
asg32
Nsbsg33
I2
sg34
F18.0
sbs(g9
g1092
tp5180
g0
(g14
g2
Ntp5181
Rp5182
(dp5183
g18
F0.5
sg19
I17
sg20
g0
(g21
g22
(dp5184
I01
I1
sNI16
stp5185
Rp5186
(dp5187
g19
I17
sg27
Nsg28
(lp5188
(NI16
tp5189
a(I01
I1
tp5190
asg32
Nsbsg33
I2
sg34
F18.0
sbs(g9
g244
tp5191
g0
(g14
g2
Ntp5192
Rp5193
(dp5194
g18
F0.5
sg19
I17
sg20
g0
(g21
g22
(dp5195
NI17
stp5196
Rp5197
(dp5198
g19
I17
sg27
Nsg28
(lp5199
(NI17
tp5200
asg32
Nsbsg33
I2
sg34
F18.0
sbs(g9
g3822
tp5201
g0
(g14
g2
Ntp5202
Rp5203
(dp5204
g18
F0.5
sg19
I17
sg20
g0
(g21
g22
(dp5205
I01
I1
sNI16
stp5206
Rp5207
(dp5208
g19
I17
sg27
Nsg28
(lp5209
(NI16
tp5210
a(I01
I1
tp5211
asg32
Nsbsg33
I2
sg34
F18.0
sbs(g9
g3031
tp5212
g0
(g14
g2
Ntp5213
Rp5214
(dp5215
g18
F0.5
sg19
I17
sg20
g0
(g21
g22
(dp5216
NI17
stp5217
Rp5218
(dp5219
g19
I17
sg27
Nsg28
(lp5220
(NI17
tp5221
asg32
Nsbsg33
I2
sg34
F18.0
sbs(g9
g1712
tp5222
g0
(g14
g2
Ntp5223
Rp5224
(dp5225
g18
F0.5
sg19
I17
sg20
g0
(g21
g22
(dp5226
I01
I1
sNI16
stp5227
Rp5228
(dp5229
g19
I17
sg27
Nsg28
(lp5230
(NI16
tp5231
a(I01
I1
tp5232
asg32
Nsbsg33
I2
sg34
F18.0
sbs(g9
g4569
tp5233
g0
(g14
g2
Ntp5234
Rp5235
(dp5236
g18
F0.5
sg19
I17
sg20
g0
(g21
g22
(dp5237
NI17
stp5238
Rp5239
(dp5240
g19
I17
sg27
Nsg28
(lp5241
(NI17
tp5242
asg32
Nsbsg33
I2
sg34
F18.0
sbs(g9
g3983
tp5243
g0
(g14
g2
Ntp5244
Rp5245
(dp5246
g18
F0.5
sg19
I17
sg20
g0
(g21
g22
(dp5247
NI17
stp5248
Rp5249
(dp5250
g19
I17
sg27
Nsg28
(lp5251
(NI17
tp5252
asg32
Nsbsg33
I2
sg34
F18.0
sbs(g9
S'ipad'
p5253
tp5254
g0
(g14
g2
Ntp5255
Rp5256
(dp5257
g18
F0.5
sg19
I17
sg20
g0
(g21
g22
(dp5258
NI17
stp5259
Rp5260
(dp5261
g19
I17
sg27
Nsg28
(lp5262
(NI17
tp5263
asg32
Nsbsg33
I2
sg34
F18.0
sbs(g8
S'less'
p5264
tp5265
g0
(g14
g2
Ntp5266
Rp5267
(dp5268
g18
F0.5
sg19
I19
sg20
g0
(g21
g22
(dp5269
I01
I1
sNI18
stp5270
Rp5271
(dp5272
g19
I19
sg27
Nsg28
(lp5273
(NI18
tp5274
a(I01
I1
tp5275
asg32
Nsbsg33
I2
sg34
F20.0
sbs(g8
g5253
tp5276
g0
(g14
g2
Ntp5277
Rp5278
(dp5279
g18
F0.5
sg19
I19
sg20
g0
(g21
g22
(dp5280
I01
I1
sNI18
stp5281
Rp5282
(dp5283
g19
I19
sg27
Nsg28
(lp5284
(NI18
tp5285
a(I01
I1
tp5286
asg32
Nsbsg33
I2
sg34
F20.0
sbs(g8
g4355
tp5287
g0
(g14
g2
Ntp5288
Rp5289
(dp5290
g18
F0.5
sg19
I19
sg20
g0
(g21
g22
(dp5291
I01
I1
sNI18
stp5292
Rp5293
(dp5294
g19
I19
sg27
Nsg28
(lp5295
(NI18
tp5296
a(I01
I1
tp5297
asg32
Nsbsg33
I2
sg34
F20.0
sbs(g8
g3766
tp5298
g0
(g14
g2
Ntp5299
Rp5300
(dp5301
g18
F0.5
sg19
I19
sg20
g0
(g21
g22
(dp5302
NI19
stp5303
Rp5304
(dp5305
g19
I19
sg27
Nsg28
(lp5306
(NI19
tp5307
asg32
Nsbsg33
I2
sg34
F20.0
sbs(g8
g4750
tp5308
g0
(g14
g2
Ntp5309
Rp5310
(dp5311
g18
F0.5
sg19
I19
sg20
g0
(g21
g22
(dp5312
I01
I1
sNI18
stp5313
Rp5314
(dp5315
g19
I19
sg27
Nsg28
(lp5316
(NI18
tp5317
a(I01
I1
tp5318
asg32
Nsbsg33
I2
sg34
F20.0
sbs(g9
g1069
tp5319
g0
(g14
g2
Ntp5320
Rp5321
(dp5322
g18
F0.5
sg19
I17
sg20
g0
(g21
g22
(dp5323
I01
I2
sNI15
stp5324
Rp5325
(dp5326
g19
I17
sg27
Nsg28
(lp5327
(NI15
tp5328
a(I01
I2
tp5329
asg32
Nsbsg33
I2
sg34
F18.0
sbs(g9
S'<x>'
p5330
tp5331
g0
(g14
g2
Ntp5332
Rp5333
(dp5334
g18
F0.5
sg19
I17
sg20
g0
(g21
g22
(dp5335
I01
I14
sNI3
stp5336
Rp5337
(dp5338
g19
I17
sg27
Nsg28
(lp5339
(I01
I14
tp5340
a(NI3
tp5341
asg32
Nsbsg33
I2
sg34
F18.0
sbs(g9
g4483
tp5342
g0
(g14
g2
Ntp5343
Rp5344
(dp5345
g18
F0.5
sg19
I17
sg20
g0
(g21
g22
(dp5346
I01
I1
sNI16
stp5347
Rp5348
(dp5349
g19
I17
sg27
Nsg28
(lp5350
(NI16
tp5351
a(I01
I1
tp5352
asg32
Nsbsg33
I2
sg34
F18.0
sbs(g8
g1973
tp5353
g0
(g14
g2
Ntp5354
Rp5355
(dp5356
g18
F0.5
sg19
I19
sg20
g0
(g21
g22
(dp5357
NI19
stp5358
Rp5359
(dp5360
g19
I19
sg27
Nsg28
(lp5361
(NI19
tp5362
asg32
Nsbsg33
I2
sg34
F20.0
sbs(g9
g3939
tp5363
g0
(g14
g2
Ntp5364
Rp5365
(dp5366
g18
F0.5
sg19
I17
sg20
g0
(g21
g22
(dp5367
NI17
stp5368
Rp5369
(dp5370
g19
I17
sg27
Nsg28
(lp5371
(NI17
tp5372
asg32
Nsbsg33
I2
sg34
F18.0
sbs(g9
g4709
tp5373
g0
(g14
g2
Ntp5374
Rp5375
(dp5376
g18
F0.5
sg19
I17
sg20
g0
(g21
g22
(dp5377
I01
I1
sNI16
stp5378
Rp5379
(dp5380
g19
I17
sg27
Nsg28
(lp5381
(NI16
tp5382
a(I01
I1
tp5383
asg32
Nsbsg33
I2
sg34
F18.0
sbs(g8
S'you'
p5384
tp5385
g0
(g14
g2
Ntp5386
Rp5387
(dp5388
g18
F0.5
sg19
I19
sg20
g0
(g21
g22
(dp5389
I01
I3
sNI16
stp5390
Rp5391
(dp5392
g19
I19
sg27
Nsg28
(lp5393
(NI16
tp5394
a(I01
I3
tp5395
asg32
Nsbsg33
I2
sg34
F20.0
sbs(g9
g3505
tp5396
g0
(g14
g2
Ntp5397
Rp5398
(dp5399
g18
F0.5
sg19
I17
sg20
g0
(g21
g22
(dp5400
I01
I2
sNI15
stp5401
Rp5402
(dp5403
g19
I17
sg27
Nsg28
(lp5404
(NI15
tp5405
a(I01
I2
tp5406
asg32
Nsbsg33
I2
sg34
F18.0
sbs(g8
g4430
tp5407
g0
(g14
g2
Ntp5408
Rp5409
(dp5410
g18
F0.5
sg19
I19
sg20
g0
(g21
g22
(dp5411
I01
I3
sNI16
stp5412
Rp5413
(dp5414
g19
I19
sg27
Nsg28
(lp5415
(NI16
tp5416
a(I01
I3
tp5417
asg32
Nsbsg33
I2
sg34
F20.0
sbs(g9
S"i'm"
p5418
tp5419
g0
(g14
g2
Ntp5420
Rp5421
(dp5422
g18
F0.5
sg19
I17
sg20
g0
(g21
g22
(dp5423
NI17
stp5424
Rp5425
(dp5426
g19
I17
sg27
Nsg28
(lp5427
(NI17
tp5428
asg32
Nsbsg33
I2
sg34
F18.0
sbs(g9
g2592
tp5429
g0
(g14
g2
Ntp5430
Rp5431
(dp5432
g18
F0.5
sg19
I17
sg20
g0
(g21
g22
(dp5433
I01
I1
sNI16
stp5434
Rp5435
(dp5436
g19
I17
sg27
Nsg28
(lp5437
(NI16
tp5438
a(I01
I1
tp5439
asg32
Nsbsg33
I2
sg34
F18.0
sbs(g8
g1914
tp5440
g0
(g14
g2
Ntp5441
Rp5442
(dp5443
g18
F0.5
sg19
I19
sg20
g0
(g21
g22
(dp5444
NI19
stp5445
Rp5446
(dp5447
g19
I19
sg27
Nsg28
(lp5448
(NI19
tp5449
asg32
Nsbsg33
I2
sg34
F20.0
sbs(g9
g2603
tp5450
g0
(g14
g2
Ntp5451
Rp5452
(dp5453
g18
F0.5
sg19
I17
sg20
g0
(g21
g22
(dp5454
I01
I2
sNI15
stp5455
Rp5456
(dp5457
g19
I17
sg27
Nsg28
(lp5458
(NI15
tp5459
a(I01
I2
tp5460
asg32
Nsbsg33
I2
sg34
F18.0
sbs(g8
g4027
tp5461
g0
(g14
g2
Ntp5462
Rp5463
(dp5464
g18
F0.5
sg19
I19
sg20
g0
(g21
g22
(dp5465
NI19
stp5466
Rp5467
(dp5468
g19
I19
sg27
Nsg28
(lp5469
(NI19
tp5470
asg32
Nsbsg33
I2
sg34
F20.0
sbs(g8
g5115
tp5471
g0
(g14
g2
Ntp5472
Rp5473
(dp5474
g18
F0.5
sg19
I19
sg20
g0
(g21
g22
(dp5475
NI19
stp5476
Rp5477
(dp5478
g19
I19
sg27
Nsg28
(lp5479
(NI19
tp5480
asg32
Nsbsg33
I2
sg34
F20.0
sbs(g8
g2205
tp5481
g0
(g14
g2
Ntp5482
Rp5483
(dp5484
g18
F0.5
sg19
I19
sg20
g0
(g21
g22
(dp5485
I01
I6
sNI13
stp5486
Rp5487
(dp5488
g19
I19
sg27
Nsg28
(lp5489
(NI13
tp5490
a(I01
I6
tp5491
asg32
Nsbsg33
I2
sg34
F20.0
sbs(g9
g2658
tp5492
g0
(g14
g2
Ntp5493
Rp5494
(dp5495
g18
F0.5
sg19
I17
sg20
g0
(g21
g22
(dp5496
NI17
stp5497
Rp5498
(dp5499
g19
I17
sg27
Nsg28
(lp5500
(NI17
tp5501
asg32
Nsbsg33
I2
sg34
F18.0
sbs(g8
g2535
tp5502
g0
(g14
g2
Ntp5503
Rp5504
(dp5505
g18
F0.5
sg19
I19
sg20
g0
(g21
g22
(dp5506
NI19
stp5507
Rp5508
(dp5509
g19
I19
sg27
Nsg28
(lp5510
(NI19
tp5511
asg32
Nsbsg33
I2
sg34
F20.0
sbs(g9
g2636
tp5512
g0
(g14
g2
Ntp5513
Rp5514
(dp5515
g18
F0.5
sg19
I17
sg20
g0
(g21
g22
(dp5516
I01
I1
sNI16
stp5517
Rp5518
(dp5519
g19
I17
sg27
Nsg28
(lp5520
(NI16
tp5521
a(I01
I1
tp5522
asg32
Nsbsg33
I2
sg34
F18.0
sbs(g8
g4209
tp5523
g0
(g14
g2
Ntp5524
Rp5525
(dp5526
g18
F0.5
sg19
I19
sg20
g0
(g21
g22
(dp5527
NI19
stp5528
Rp5529
(dp5530
g19
I19
sg27
Nsg28
(lp5531
(NI19
tp5532
asg32
Nsbsg33
I2
sg34
F20.0
sbs(g9
g1700
tp5533
g0
(g14
g2
Ntp5534
Rp5535
(dp5536
g18
F0.5
sg19
I17
sg20
g0
(g21
g22
(dp5537
NI17
stp5538
Rp5539
(dp5540
g19
I17
sg27
Nsg28
(lp5541
(NI17
tp5542
asg32
Nsbsg33
I2
sg34
F18.0
sbs(g8
g3593
tp5543
g0
(g14
g2
Ntp5544
Rp5545
(dp5546
g18
F0.5
sg19
I19
sg20
g0
(g21
g22
(dp5547
I01
I2
sNI17
stp5548
Rp5549
(dp5550
g19
I19
sg27
Nsg28
(lp5551
(NI17
tp5552
a(I01
I2
tp5553
asg32
Nsbsg33
I2
sg34
F20.0
sbs(g9
g3484
tp5554
g0
(g14
g2
Ntp5555
Rp5556
(dp5557
g18
F0.5
sg19
I17
sg20
g0
(g21
g22
(dp5558
I01
I1
sNI16
stp5559
Rp5560
(dp5561
g19
I17
sg27
Nsg28
(lp5562
(NI16
tp5563
a(I01
I1
tp5564
asg32
Nsbsg33
I2
sg34
F18.0
sbs(g8
g4826
tp5565
g0
(g14
g2
Ntp5566
Rp5567
(dp5568
g18
F0.5
sg19
I19
sg20
g0
(g21
g22
(dp5569
I01
I1
sNI18
stp5570
Rp5571
(dp5572
g19
I19
sg27
Nsg28
(lp5573
(NI18
tp5574
a(I01
I1
tp5575
asg32
Nsbsg33
I2
sg34
F20.0
sbs(g8
g448
tp5576
g0
(g14
g2
Ntp5577
Rp5578
(dp5579
g18
F0.5
sg19
I19
sg20
g0
(g21
g22
(dp5580
NI19
stp5581
Rp5582
(dp5583
g19
I19
sg27
Nsg28
(lp5584
(NI19
tp5585
asg32
Nsbsg33
I2
sg34
F20.0
sbs(g9
g4526
tp5586
g0
(g14
g2
Ntp5587
Rp5588
(dp5589
g18
F0.5
sg19
I17
sg20
g0
(g21
g22
(dp5590
I01
I1
sNI16
stp5591
Rp5592
(dp5593
g19
I17
sg27
Nsg28
(lp5594
(NI16
tp5595
a(I01
I1
tp5596
asg32
Nsbsg33
I2
sg34
F18.0
sbs(g9
S'garden'
p5597
tp5598
g0
(g14
g2
Ntp5599
Rp5600
(dp5601
g18
F0.5
sg19
I17
sg20
g0
(g21
g22
(dp5602
I01
I1
sNI16
stp5603
Rp5604
(dp5605
g19
I17
sg27
Nsg28
(lp5606
(NI16
tp5607
a(I01
I1
tp5608
asg32
Nsbsg33
I2
sg34
F18.0
sbs(g8
g2727
tp5609
g0
(g14
g2
Ntp5610
Rp5611
(dp5612
g18
F0.5
sg19
I19
sg20
g0
(g21
g22
(dp5613
I01
I1
sNI18
stp5614
Rp5615
(dp5616
g19
I19
sg27
Nsg28
(lp5617
(NI18
tp5618
a(I01
I1
tp5619
asg32
Nsbsg33
I2
sg34
F20.0
sbs(g8
g4557
tp5620
g0
(g14
g2
Ntp5621
Rp5622
(dp5623
g18
F0.5
sg19
I19
sg20
g0
(g21
g22
(dp5624
NI19
stp5625
Rp5626
(dp5627
g19
I19
sg27
Nsg28
(lp5628
(NI19
tp5629
asg32
Nsbsg33
I2
sg34
F20.0
sbs(g8
g4772
tp5630
g0
(g14
g2
Ntp5631
Rp5632
(dp5633
g18
F0.5
sg19
I19
sg20
g0
(g21
g22
(dp5634
NI19
stp5635
Rp5636
(dp5637
g19
I19
sg27
Nsg28
(lp5638
(NI19
tp5639
asg32
Nsbsg33
I2
sg34
F20.0
sbs(g8
g5418
tp5640
g0
(g14
g2
Ntp5641
Rp5642
(dp5643
g18
F0.5
sg19
I19
sg20
g0
(g21
g22
(dp5644
I01
I1
sNI18
stp5645
Rp5646
(dp5647
g19
I19
sg27
Nsg28
(lp5648
(NI18
tp5649
a(I01
I1
tp5650
asg32
Nsbsg33
I2
sg34
F20.0
sbs(g8
g3548
tp5651
g0
(g14
g2
Ntp5652
Rp5653
(dp5654
g18
F0.5
sg19
I19
sg20
g0
(g21
g22
(dp5655
I01
I1
sNI18
stp5656
Rp5657
(dp5658
g19
I19
sg27
Nsg28
(lp5659
(NI18
tp5660
a(I01
I1
tp5661
asg32
Nsbsg33
I2
sg34
F20.0
sbs(g8
g4254
tp5662
g0
(g14
g2
Ntp5663
Rp5664
(dp5665
g18
F0.5
sg19
I19
sg20
g0
(g21
g22
(dp5666
I01
I1
sNI18
stp5667
Rp5668
(dp5669
g19
I19
sg27
Nsg28
(lp5670
(NI18
tp5671
a(I01
I1
tp5672
asg32
Nsbsg33
I2
sg34
F20.0
sbs(g8
g3669
tp5673
g0
(g14
g2
Ntp5674
Rp5675
(dp5676
g18
F0.5
sg19
I19
sg20
g0
(g21
g22
(dp5677
I01
I1
sNI18
stp5678
Rp5679
(dp5680
g19
I19
sg27
Nsg28
(lp5681
(NI18
tp5682
a(I01
I1
tp5683
asg32
Nsbsg33
I2
sg34
F20.0
sbs(g8
g2401
tp5684
g0
(g14
g2
Ntp5685
Rp5686
(dp5687
g18
F0.5
sg19
I19
sg20
g0
(g21
g22
(dp5688
NI19
stp5689
Rp5690
(dp5691
g19
I19
sg27
Nsg28
(lp5692
(NI19
tp5693
asg32
Nsbsg33
I2
sg34
F20.0
sbs(g9
g4925
tp5694
g0
(g14
g2
Ntp5695
Rp5696
(dp5697
g18
F0.5
sg19
I17
sg20
g0
(g21
g22
(dp5698
I01
I1
sNI16
stp5699
Rp5700
(dp5701
g19
I17
sg27
Nsg28
(lp5702
(NI16
tp5703
a(I01
I1
tp5704
asg32
Nsbsg33
I2
sg34
F18.0
sbs(g9
g2060
tp5705
g0
(g14
g2
Ntp5706
Rp5707
(dp5708
g18
F0.5
sg19
I17
sg20
g0
(g21
g22
(dp5709
NI17
stp5710
Rp5711
(dp5712
g19
I17
sg27
Nsg28
(lp5713
(NI17
tp5714
asg32
Nsbsg33
I2
sg34
F18.0
sbs(g9
g2791
tp5715
g0
(g14
g2
Ntp5716
Rp5717
(dp5718
g18
F0.5
sg19
I17
sg20
g0
(g21
g22
(dp5719
I01
I1
sNI16
stp5720
Rp5721
(dp5722
g19
I17
sg27
Nsg28
(lp5723
(NI16
tp5724
a(I01
I1
tp5725
asg32
Nsbsg33
I2
sg34
F18.0
sbs(g8
g1494
tp5726
g0
(g14
g2
Ntp5727
Rp5728
(dp5729
g18
F0.5
sg19
I19
sg20
g0
(g21
g22
(dp5730
I01
I1
sNI18
stp5731
Rp5732
(dp5733
g19
I19
sg27
Nsg28
(lp5734
(NI18
tp5735
a(I01
I1
tp5736
asg32
Nsbsg33
I2
sg34
F20.0
sbs(g8
g795
tp5737
g0
(g14
g2
Ntp5738
Rp5739
(dp5740
g18
F0.5
sg19
I19
sg20
g0
(g21
g22
(dp5741
NI19
stp5742
Rp5743
(dp5744
g19
I19
sg27
Nsg28
(lp5745
(NI19
tp5746
asg32
Nsbsg33
I2
sg34
F20.0
sbs(g8
g2962
tp5747
g0
(g14
g2
Ntp5748
Rp5749
(dp5750
g18
F0.5
sg19
I19
sg20
g0
(g21
g22
(dp5751
NI19
stp5752
Rp5753
(dp5754
g19
I19
sg27
Nsg28
(lp5755
(NI19
tp5756
asg32
Nsbsg33
I2
sg34
F20.0
sbssS'_label_probdist'
p5757
g0
(g14
g2
Ntp5758
Rp5759
(dp5760
g18
F0.5
sg19
I36
sg20
g0
(g21
g22
(dp5761
g8
I19
sg9
I17
stp5762
Rp5763
(dp5764
g19
I36
sg27
Nsg28
(lp5765
(g8
I19
tp5766
a(g9
I17
tp5767
asg32
Nsbsg33
I2
sg34
F37.0
sbsb.