ccopy_reg
_reconstructor
p0
(cnltk.classify.naivebayes
NaiveBayesClassifier
p1
c__builtin__
object
p2
Ntp3
Rp4
(dp5
S'_labels'
p6
(lp7
S'neg'
p8
aS'pos'
p9
asS'_feature_probdist'
p10
(dp11
(g9
S'questions'
p12
tp13
g0
(cnltk.probability
ELEProbDist
p14
g2
Ntp15
Rp16
(dp17
S'_gamma'
p18
F0.5
sS'_N'
p19
I17
sS'_freqdist'
p20
g0
(cnltk.probability
FreqDist
p21
c__builtin__
dict
p22
(dp23
I01
I1
sNI16
stp24
Rp25
(dp26
g19
I17
sS'_max_cache'
p27
NsS'_item_cache'
p28
(lp29
(NI16
tp30
a(I01
I1
tp31
asS'_Nr_cache'
p32
NsbsS'_bins'
p33
I2
sS'_divisor'
p34
F18.0
sbs(g9
S'friends'
p35
tp36
g0
(g14
g2
Ntp37
Rp38
(dp39
g18
F0.5
sg19
I17
sg20
g0
(g21
g22
(dp40
I01
I1
sNI16
stp41
Rp42
(dp43
g19
I17
sg27
Nsg28
(lp44
(NI16
tp45
a(I01
I1
tp46
asg32
Nsbsg33
I2
sg34
F18.0
sbs(g8
S'pledge'
p47
tp48
g0
(g14
g2
Ntp49
Rp50
(dp51
g18
F0.5
sg19
I19
sg20
g0
(g21
g22
(dp52
NI19
stp53
Rp54
(dp55
g19
I19
sg27
Nsg28
(lp56
(NI19
tp57
asg32
Nsbsg33
I2
sg34
F20.0
sbs(g8
S'weather'
p58
tp59
g0
(g14
g2
Ntp60
Rp61
(dp62
g18
F0.5
sg19
I19
sg20
g0
(g21
g22
(dp63
NI19
stp64
Rp65
(dp66
g19
I19
sg27
Nsg28
(lp67
(NI19
tp68
asg32
Nsbsg33
I2
sg34
F20.0
sbs(g8
S'11th'
p69
tp70
g0
(g14
g2
Ntp71
Rp72
(dp73
g18
F0.5
sg19
I19
sg20
g0
(g21
g22
(dp74
I01
I1
sNI18
stp75
Rp76
(dp77
g19
I19
sg27
Nsg28
(lp78
(NI18
tp79
a(I01
I1
tp80
asg32
Nsbsg33
I2
sg34
F20.0
sbs(g8
S'good'
p81
tp82
g0
(g14
g2
Ntp83
Rp84
(dp85
g18
F0.5
sg19
I19
sg20
g0
(g21
g22
(dp86
I01
I1
sNI18
stp87
Rp88
(dp89
g19
I19
sg27
Nsg28
(lp90
(NI18
tp91
a(I01
I1
tp92
asg32
Nsbsg33
I2
sg34
F20.0
sbs(g8
S'of'
p93
tp94
g0
(g14
g2
Ntp95
Rp96
(dp97
g18
F0.5
sg19
I19
sg20
g0
(g21
g22
(dp98
I01
I3
sNI16
stp99
Rp100
(dp101
g19
I19
sg27
Nsg28
(lp102
(NI16
tp103
a(I01
I3
tp104
asg32
Nsbsg33
I2
sg34
F20.0
sbs(g9
S'french'
p105
tp106
g0
(g14
g2
Ntp107
Rp108
(dp109
g18
F0.5
sg19
I17
sg20
g0
(g21
g22
(dp110
I01
I1
sNI16
stp111
Rp112
(dp113
g19
I17
sg27
Nsg28
(lp114
(NI16
tp115
a(I01
I1
tp116
asg32
Nsbsg33
I2
sg34
F18.0
sbs(g9
S'ahead'
p117
tp118
g0
(g14
g2
Ntp119
Rp120
(dp121
g18
F0.5
sg19
I17
sg20
g0
(g21
g22
(dp122
I01
I1
sNI16
stp123
Rp124
(dp125
g19
I17
sg27
Nsg28
(lp126
(NI16
tp127
a(I01
I1
tp128
asg32
Nsbsg33
I2
sg34
F18.0
sbs(g8
S'early'
p129
tp130
g0
(g14
g2
Ntp131
Rp132
(dp133
g18
F0.5
sg19
I19
sg20
g0
(g21
g22
(dp134
I01
I1
sNI18
stp135
Rp136
(dp137
g19
I19
sg27
Nsg28
(lp138
(NI18
tp139
a(I01
I1
tp140
asg32
Nsbsg33
I2
sg34
F20.0
sbs(g8
S'belong'
p141
tp142
g0
(g14
g2
Ntp143
Rp144
(dp145
g18
F0.5
sg19
I19
sg20
g0
(g21
g22
(dp146
I01
I1
sNI18
stp147
Rp148
(dp149
g19
I19
sg27
Nsg28
(lp150
(NI18
tp151
a(I01
I1
tp152
asg32
Nsbsg33
I2
sg34
F20.0
sbs(g8
S'south'
p153
tp154
g0
(g14
g2
Ntp155
Rp156
(dp157
g18
F0.5
sg19
I19
sg20
g0
(g21
g22
(dp158
I01
I2
sNI17
stp159
Rp160
(dp161
g19
I19
sg27
Nsg28
(lp162
(NI17
tp163
a(I01
I2
tp164
asg32
Nsbsg33
I2
sg34
F20.0
sbs(g9
S'any'
p165
tp166
g0
(g14
g2
Ntp167
Rp168
(dp169
g18
F0.5
sg19
I17
sg20
g0
(g21
g22
(dp170
I01
I3
sNI14
stp171
Rp172
(dp173
g19
I17
sg27
Nsg28
(lp174
(NI14
tp175
a(I01
I3
tp176
asg32
Nsbsg33
I2
sg34
F18.0
sbs(g9
S'became'
p177
tp178
g0
(g14
g2
Ntp179
Rp180
(dp181
g18
F0.5
sg19
I17
sg20
g0
(g21
g22
(dp182
I01
I1
sNI16
stp183
Rp184
(dp185
g19
I17
sg27
Nsg28
(lp186
(NI16
tp187
a(I01
I1
tp188
asg32
Nsbsg33
I2
sg34
F18.0
sbs(g9
S'>,'
p189
tp190
g0
(g14
g2
Ntp191
Rp192
(dp193
g18
F0.5
sg19
I17
sg20
g0
(g21
g22
(dp194
I01
I1
sNI16
stp195
Rp196
(dp197
g19
I17
sg27
Nsg28
(lp198
(NI16
tp199
a(I01
I1
tp200
asg32
Nsbsg33
I2
sg34
F18.0
sbs(g9
S'board'
p201
tp202
g0
(g14
g2
Ntp203
Rp204
(dp205
g18
F0.5
sg19
I17
sg20
g0
(g21
g22
(dp206
NI17
stp207
Rp208
(dp209
g19
I17
sg27
Nsg28
(lp210
(NI17
tp211
asg32
Nsbsg33
I2
sg34
F18.0
sbs(g8
S'believe'
p212
tp213
g0
(g14
g2
Ntp214
Rp215
(dp216
g18
F0.5
sg19
I19
sg20
g0
(g21
g22
(dp217
I01
I1
sNI18
stp218
Rp219
(dp220
g19
I19
sg27
Nsg28
(lp221
(NI18
tp222
a(I01
I1
tp223
asg32
Nsbsg33
I2
sg34
F20.0
sbs(g8
S'years'
p224
tp225
g0
(g14
g2
Ntp226
Rp227
(dp228
g18
F0.5
sg19
I19
sg20
g0
(g21
g22
(dp229
NI19
stp230
Rp231
(dp232
g19
I19
sg27
Nsg28
(lp233
(NI19
tp234
asg32
Nsbsg33
I2
sg34
F20.0
sbs(g8
S'oklahoma'
p235
tp236
g0
(g14
g2
Ntp237
Rp238
(dp239
g18
F0.5
sg19
I19
sg20
g0
(g21
g22
(dp240
I01
I1
sNI18
stp241
Rp242
(dp243
g19
I19
sg27
Nsg28
(lp244
(NI18
tp245
a(I01
I1
tp246
asg32
Nsbsg33
I2
sg34
F20.0
sbs(g9
S'cruel?'
p247
tp248
g0
(g14
g2
Ntp249
Rp250
(dp251
g18
F0.5
sg19
I17
sg20
g0
(g21
g22
(dp252
NI17
stp253
Rp254
(dp255
g19
I17
sg27
Nsg28
(lp256
(NI17
tp257
asg32
Nsbsg33
I2
sg34
F18.0
sbs(g9
S'prep'
p258
tp259
g0
(g14
g2
Ntp260
Rp261
(dp262
g18
F0.5
sg19
I17
sg20
g0
(g21
g22
(dp263
I01
I1
sNI16
stp264
Rp265
(dp266
g19
I17
sg27
Nsg28
(lp267
(NI16
tp268
a(I01
I1
tp269
asg32
Nsbsg33
I2
sg34
F18.0
sbs(g9
S'of'
p270
tp271
g0
(g14
g2
Ntp272
Rp273
(dp274
g18
F0.5
sg19
I17
sg20
g0
(g21
g22
(dp275
I01
I8
sNI9
stp276
Rp277
(dp278
g19
I17
sg27
Nsg28
(lp279
(NI9
tp280
a(I01
I8
tp281
asg32
Nsbsg33
I2
sg34
F18.0
sbs(g8
S'need'
p282
tp283
g0
(g14
g2
Ntp284
Rp285
(dp286
g18
F0.5
sg19
I19
sg20
g0
(g21
g22
(dp287
I01
I1
sNI18
stp288
Rp289
(dp290
g19
I19
sg27
Nsg28
(lp291
(NI18
tp292
a(I01
I1
tp293
asg32
Nsbsg33
I2
sg34
F20.0
sbs(g8
S'bye'
p294
tp295
g0
(g14
g2
Ntp296
Rp297
(dp298
g18
F0.5
sg19
I19
sg20
g0
(g21
g22
(dp299
NI19
stp300
Rp301
(dp302
g19
I19
sg27
Nsg28
(lp303
(NI19
tp304
asg32
Nsbsg33
I2
sg34
F20.0
sbs(g8
S'boots'
p305
tp306
g0
(g14
g2
Ntp307
Rp308
(dp309
g18
F0.5
sg19
I19
sg20
g0
(g21
g22
(dp310
I01
I1
sNI18
stp311
Rp312
(dp313
g19
I19
sg27
Nsg28
(lp314
(NI18
tp315
a(I01
I1
tp316
asg32
Nsbsg33
I2
sg34
F20.0
sbs(g8
S'<'
p317
tp318
g0
(g14
g2
Ntp319
Rp320
(dp321
g18
F0.5
sg19
I19
sg20
g0
(g21
g22
(dp322
I01
I5
sNI14
stp323
Rp324
(dp325
g19
I19
sg27
Nsg28
(lp326
(NI14
tp327
a(I01
I5
tp328
asg32
Nsbsg33
I2
sg34
F20.0
sbs(g9
g305
tp329
g0
(g14
g2
Ntp330
Rp331
(dp332
g18
F0.5
sg19
I17
sg20
g0
(g21
g22
(dp333
NI17
stp334
Rp335
(dp336
g19
I17
sg27
Nsg28
(lp337
(NI17
tp338
asg32
Nsbsg33
I2
sg34
F18.0
sbs(g9
S'off'
p339
tp340
g0
(g14
g2
Ntp341
Rp342
(dp343
g18
F0.5
sg19
I17
sg20
g0
(g21
g22
(dp344
NI17
stp345
Rp346
(dp347
g19
I17
sg27
Nsg28
(lp348
(NI17
tp349
asg32
Nsbsg33
I2
sg34
F18.0
sbs(g8
S"year's"
p350
tp351
g0
(g14
g2
Ntp352
Rp353
(dp354
g18
F0.5
sg19
I19
sg20
g0
(g21
g22
(dp355
I01
I1
sNI18
stp356
Rp357
(dp358
g19
I19
sg27
Nsg28
(lp359
(NI18
tp360
a(I01
I1
tp361
asg32
Nsbsg33
I2
sg34
F20.0
sbs(g9
S'honor'
p362
tp363
g0
(g14
g2
Ntp364
Rp365
(dp366
g18
F0.5
sg19
I17
sg20
g0
(g21
g22
(dp367
I01
I1
sNI16
stp368
Rp369
(dp370
g19
I17
sg27
Nsg28
(lp371
(NI16
tp372
a(I01
I1
tp373
asg32
Nsbsg33
I2
sg34
F18.0
sbs(g8
S'past'
p374
tp375
g0
(g14
g2
Ntp376
Rp377
(dp378
g18
F0.5
sg19
I19
sg20
g0
(g21
g22
(dp379
I01
I1
sNI18
stp380
Rp381
(dp382
g19
I19
sg27
Nsg28
(lp383
(NI18
tp384
a(I01
I1
tp385
asg32
Nsbsg33
I2
sg34
F20.0
sbs(g8
S'work'
p386
tp387
g0
(g14
g2
Ntp388
Rp389
(dp390
g18
F0.5
sg19
I19
sg20
g0
(g21
g22
(dp391
I01
I2
sNI17
stp392
Rp393
(dp394
g19
I19
sg27
Nsg28
(lp395
(NI17
tp396
a(I01
I2
tp397
asg32
Nsbsg33
I2
sg34
F20.0
sbs(g9
S'by'
p398
tp399
g0
(g14
g2
Ntp400
Rp401
(dp402
g18
F0.5
sg19
I17
sg20
g0
(g21
g22
(dp403
I01
I1
sNI16
stp404
Rp405
(dp406
g19
I17
sg27
Nsg28
(lp407
(NI16
tp408
a(I01
I1
tp409
asg32
Nsbsg33
I2
sg34
F18.0
sbs(g9
S'this'
p410
tp411
g0
(g14
g2
Ntp412
Rp413
(dp414
g18
F0.5
sg19
I17
sg20
g0
(g21
g22
(dp415
I01
I1
sNI16
stp416
Rp417
(dp418
g19
I17
sg27
Nsg28
(lp419
(NI16
tp420
a(I01
I1
tp421
asg32
Nsbsg33
I2
sg34
F18.0
sbs(g9
S'wonderful'
p422
tp423
g0
(g14
g2
Ntp424
Rp425
(dp426
g18
F0.5
sg19
I17
sg20
g0
(g21
g22
(dp427
NI17
stp428
Rp429
(dp430
g19
I17
sg27
Nsg28
(lp431
(NI17
tp432
asg32
Nsbsg33
I2
sg34
F18.0
sbs(g9
S'5am'
p433
tp434
g0
(g14
g2
Ntp435
Rp436
(dp437
g18
F0.5
sg19
I17
sg20
g0
(g21
g22
(dp438
NI17
stp439
Rp440
(dp441
g19
I17
sg27
Nsg28
(lp442
(NI17
tp443
asg32
Nsbsg33
I2
sg34
F18.0
sbs(g8
g422
tp444
g0
(g14
g2
Ntp445
Rp446
(dp447
g18
F0.5
sg19
I19
sg20
g0
(g21
g22
(dp448
I01
I1
sNI18
stp449
Rp450
(dp451
g19
I19
sg27
Nsg28
(lp452
(NI18
tp453
a(I01
I1
tp454
asg32
Nsbsg33
I2
sg34
F20.0
sbs(g9
g235
tp455
g0
(g14
g2
Ntp456
Rp457
(dp458
g18
F0.5
sg19
I17
sg20
g0
(g21
g22
(dp459
NI17
stp460
Rp461
(dp462
g19
I17
sg27
Nsg28
(lp463
(NI17
tp464
asg32
Nsbsg33
I2
sg34
F18.0
sbs(g8
S">'s"
p465
tp466
g0
(g14
g2
Ntp467
Rp468
(dp469
g18
F0.5
sg19
I19
sg20
g0
(g21
g22
(dp470
I01
I1
sNI18
stp471
Rp472
(dp473
g19
I19
sg27
Nsg28
(lp474
(NI18
tp475
a(I01
I1
tp476
asg32
Nsbsg33
I2
sg34
F20.0
sbs(g9
S'have'
p477
tp478
g0
(g14
g2
Ntp479
Rp480
(dp481
g18
F0.5
sg19
I17
sg20
g0
(g21
g22
(dp482
NI17
stp483
Rp484
(dp485
g19
I17
sg27
Nsg28
(lp486
(NI17
tp487
asg32
Nsbsg33
I2
sg34
F18.0
sbs(g8
S'house'
p488
tp489
g0
(g14
g2
Ntp490
Rp491
(dp492
g18
F0.5
sg19
I19
sg20
g0
(g21
g22
(dp493
NI19
stp494
Rp495
(dp496
g19
I19
sg27
Nsg28
(lp497
(NI19
tp498
asg32
Nsbsg33
I2
sg34
F20.0
sbs(g9
S't.'
p499
tp500
g0
(g14
g2
Ntp501
Rp502
(dp503
g18
F0.5
sg19
I17
sg20
g0
(g21
g22
(dp504
NI17
stp505
Rp506
(dp507
g19
I17
sg27
Nsg28
(lp508
(NI17
tp509
asg32
Nsbsg33
I2
sg34
F18.0
sbs(g9
g294
tp510
g0
(g14
g2
Ntp511
Rp512
(dp513
g18
F0.5
sg19
I17
sg20
g0
(g21
g22
(dp514
I01
I1
sNI16
stp515
Rp516
(dp517
g19
I17
sg27
Nsg28
(lp518
(NI16
tp519
a(I01
I1
tp520
asg32
Nsbsg33
I2
sg34
F18.0
sbs(g9
S'being'
p521
tp522
g0
(g14
g2
Ntp523
Rp524
(dp525
g18
F0.5
sg19
I17
sg20
g0
(g21
g22
(dp526
I01
I1
sNI16
stp527
Rp528
(dp529
g19
I17
sg27
Nsg28
(lp530
(NI16
tp531
a(I01
I1
tp532
asg32
Nsbsg33
I2
sg34
F18.0
sbs(g9
S'west'
p533
tp534
g0
(g14
g2
Ntp535
Rp536
(dp537
g18
F0.5
sg19
I17
sg20
g0
(g21
g22
(dp538
I01
I1
sNI16
stp539
Rp540
(dp541
g19
I17
sg27
Nsg28
(lp542
(NI16
tp543
a(I01
I1
tp544
asg32
Nsbsg33
I2
sg34
F18.0
sbs(g8
S'tonite'
p545
tp546
g0
(g14
g2
Ntp547
Rp548
(dp549
g18
F0.5
sg19
I19
sg20
g0
(g21
g22
(dp550
I01
I1
sNI18
stp551
Rp552
(dp553
g19
I19
sg27
Nsg28
(lp554
(NI18
tp555
a(I01
I1
tp556
asg32
Nsbsg33
I2
sg34
F20.0
sbs(g8
S'watching'
p557
tp558
g0
(g14
g2
Ntp559
Rp560
(dp561
g18
F0.5
sg19
I19
sg20
g0
(g21
g22
(dp562
NI19
stp563
Rp564
(dp565
g19
I19
sg27
Nsg28
(lp566
(NI19
tp567
asg32
Nsbsg33
I2
sg34
F20.0
sbs(g9
S'wondering'
p568
tp569
g0
(g14
g2
Ntp570
Rp571
(dp572
g18
F0.5
sg19
I17
sg20
g0
(g21
g22
(dp573
I01
I1
sNI16
stp574
Rp575
(dp576
g19
I17
sg27
Nsg28
(lp577
(NI16
tp578
a(I01
I1
tp579
asg32
Nsbsg33
I2
sg34
F18.0
sbs(g9
S'meeting.'
p580
tp581
g0
(g14
g2
Ntp582
Rp583
(dp584
g18
F0.5
sg19
I17
sg20
g0
(g21
g22
(dp585
I01
I1
sNI16
stp586
Rp587
(dp588
g19
I17
sg27
Nsg28
(lp589
(NI16
tp590
a(I01
I1
tp591
asg32
Nsbsg33
I2
sg34
F18.0
sbs(g9
S'sister'
p592
tp593
g0
(g14
g2
Ntp594
Rp595
(dp596
g18
F0.5
sg19
I17
sg20
g0
(g21
g22
(dp597
I01
I1
sNI16
stp598
Rp599
(dp600
g19
I17
sg27
Nsg28
(lp601
(NI16
tp602
a(I01
I1
tp603
asg32
Nsbsg33
I2
sg34
F18.0
sbs(g8
S'call'
p604
tp605
g0
(g14
g2
Ntp606
Rp607
(dp608
g18
F0.5
sg19
I19
sg20
g0
(g21
g22
(dp609
I01
I1
sNI18
stp610
Rp611
(dp612
g19
I19
sg27
Nsg28
(lp613
(NI18
tp614
a(I01
I1
tp615
asg32
Nsbsg33
I2
sg34
F20.0
sbs(g8
S'facebook'
p616
tp617
g0
(g14
g2
Ntp618
Rp619
(dp620
g18
F0.5
sg19
I19
sg20
g0
(g21
g22
(dp621
NI19
stp622
Rp623
(dp624
g19
I19
sg27
Nsg28
(lp625
(NI19
tp626
asg32
Nsbsg33
I2
sg34
F20.0
sbs(g9
g350
tp627
g0
(g14
g2
Ntp628
Rp629
(dp630
g18
F0.5
sg19
I17
sg20
g0
(g21
g22
(dp631
NI17
stp632
Rp633
(dp634
g19
I17
sg27
Nsg28
(lp635
(NI17
tp636
asg32
Nsbsg33
I2
sg34
F18.0
sbs(g8
S'2011'
p637
tp638
g0
(g14
g2
Ntp639
Rp640
(dp641
g18
F0.5
sg19
I19
sg20
g0
(g21
g22
(dp642
I01
I1
sNI18
stp643
Rp644
(dp645
g19
I19
sg27
Nsg28
(lp646
(NI18
tp647
a(I01
I1
tp648
asg32
Nsbsg33
I2
sg34
F20.0
sbs(g8
S'your'
p649
tp650
g0
(g14
g2
Ntp651
Rp652
(dp653
g18
F0.5
sg19
I19
sg20
g0
(g21
g22
(dp654
I01
I1
sNI18
stp655
Rp656
(dp657
g19
I19
sg27
Nsg28
(lp658
(NI18
tp659
a(I01
I1
tp660
asg32
Nsbsg33
I2
sg34
F20.0
sbs(g9
S'wanna'
p661
tp662
g0
(g14
g2
Ntp663
Rp664
(dp665
g18
F0.5
sg19
I17
sg20
g0
(g21
g22
(dp666
NI17
stp667
Rp668
(dp669
g19
I17
sg27
Nsg28
(lp670
(NI17
tp671
asg32
Nsbsg33
I2
sg34
F18.0
sbs(g8
S'the'
p672
tp673
g0
(g14
g2
Ntp674
Rp675
(dp676
g18
F0.5
sg19
I19
sg20
g0
(g21
g22
(dp677
I01
I8
sNI11
stp678
Rp679
(dp680
g19
I19
sg27
Nsg28
(lp681
(NI11
tp682
a(I01
I8
tp683
asg32
Nsbsg33
I2
sg34
F20.0
sbs(g9
S'mother'
p684
tp685
g0
(g14
g2
Ntp686
Rp687
(dp688
g18
F0.5
sg19
I17
sg20
g0
(g21
g22
(dp689
NI17
stp690
Rp691
(dp692
g19
I17
sg27
Nsg28
(lp693
(NI17
tp694
asg32
Nsbsg33
I2
sg34
F18.0
sbs(g9
S'go'
p695
tp696
g0
(g14
g2
Ntp697
Rp698
(dp699
g18
F0.5
sg19
I17
sg20
g0
(g21
g22
(dp700
I01
I1
sNI16
stp701
Rp702
(dp703
g19
I17
sg27
Nsg28
(lp704
(NI16
tp705
a(I01
I1
tp706
asg32
Nsbsg33
I2
sg34
F18.0
sbs(g9
S'sad'
p707
tp708
g0
(g14
g2
Ntp709
Rp710
(dp711
g18
F0.5
sg19
I17
sg20
g0
(g21
g22
(dp712
I01
I1
sNI16
stp713
Rp714
(dp715
g19
I17
sg27
Nsg28
(lp716
(NI16
tp717
a(I01
I1
tp718
asg32
Nsbsg33
I2
sg34
F18.0
sbs(g8
S'or'
p719
tp720
g0
(g14
g2
Ntp721
Rp722
(dp723
g18
F0.5
sg19
I19
sg20
g0
(g21
g22
(dp724
I01
I1
sNI18
stp725
Rp726
(dp727
g19
I19
sg27
Nsg28
(lp728
(NI18
tp729
a(I01
I1
tp730
asg32
Nsbsg33
I2
sg34
F20.0
sbs(g9
S'cup'
p731
tp732
g0
(g14
g2
Ntp733
Rp734
(dp735
g18
F0.5
sg19
I17
sg20
g0
(g21
g22
(dp736
I01
I1
sNI16
stp737
Rp738
(dp739
g19
I17
sg27
Nsg28
(lp740
(NI16
tp741
a(I01
I1
tp742
asg32
Nsbsg33
I2
sg34
F18.0
sbs(g9
S'video."'
p743
tp744
g0
(g14
g2
Ntp745
Rp746
(dp747
g18
F0.5
sg19
I17
sg20
g0
(g21
g22
(dp748
I01
I1
sNI16
stp749
Rp750
(dp751
g19
I17
sg27
Nsg28
(lp752
(NI16
tp753
a(I01
I1
tp754
asg32
Nsbsg33
I2
sg34
F18.0
sbs(g8
S'heard'
p755
tp756
g0
(g14
g2
Ntp757
Rp758
(dp759
g18
F0.5
sg19
I19
sg20
g0
(g21
g22
(dp760
NI19
stp761
Rp762
(dp763
g19
I19
sg27
Nsg28
(lp764
(NI19
tp765
asg32
Nsbsg33
I2
sg34
F20.0
sbs(g9
g58
tp766
g0
(g14
g2
Ntp767
Rp768
(dp769
g18
F0.5
sg19
I17
sg20
g0
(g21
g22
(dp770
I01
I1
sNI16
stp771
Rp772
(dp773
g19
I17
sg27
Nsg28
(lp774
(NI16
tp775
a(I01
I1
tp776
asg32
Nsbsg33
I2
sg34
F18.0
sbs(g8
S'american'
p777
tp778
g0
(g14
g2
Ntp779
Rp780
(dp781
g18
F0.5
sg19
I19
sg20
g0
(g21
g22
(dp782
NI19
stp783
Rp784
(dp785
g19
I19
sg27
Nsg28
(lp786
(NI19
tp787
asg32
Nsbsg33
I2
sg34
F20.0
sbs(g8
S'please.'
p788
tp789
g0
(g14
g2
Ntp790
Rp791
(dp792
g18
F0.5
sg19
I19
sg20
g0
(g21
g22
(dp793
NI19
stp794
Rp795
(dp796
g19
I19
sg27
Nsg28
(lp797
(NI19
tp798
asg32
Nsbsg33
I2
sg34
F20.0
sbs(g9
S'4th!'
p799
tp800
g0
(g14
g2
Ntp801
Rp802
(dp803
g18
F0.5
sg19
I17
sg20
g0
(g21
g22
(dp804
I01
I1
sNI16
stp805
Rp806
(dp807
g19
I17
sg27
Nsg28
(lp808
(NI16
tp809
a(I01
I1
tp810
asg32
Nsbsg33
I2
sg34
F18.0
sbs(g8
S'people'
p811
tp812
g0
(g14
g2
Ntp813
Rp814
(dp815
g18
F0.5
sg19
I19
sg20
g0
(g21
g22
(dp816
NI19
stp817
Rp818
(dp819
g19
I19
sg27
Nsg28
(lp820
(NI19
tp821
asg32
Nsbsg33
I2
sg34
F20.0
sbs(g8
S'due'
p822
tp823
g0
(g14
g2
Ntp824
Rp825
(dp826
g18
F0.5
sg19
I19
sg20
g0
(g21
g22
(dp827
I01
I1
sNI18
stp828
Rp829
(dp830
g19
I19
sg27
Nsg28
(lp831
(NI18
tp832
a(I01
I1
tp833
asg32
Nsbsg33
I2
sg34
F20.0
sbs(g9
S'interview'
p834
tp835
g0
(g14
g2
Ntp836
Rp837
(dp838
g18
F0.5
sg19
I17
sg20
g0
(g21
g22
(dp839
I01
I1
sNI16
stp840
Rp841
(dp842
g19
I17
sg27
Nsg28
(lp843
(NI16
tp844
a(I01
I1
tp845
asg32
Nsbsg33
I2
sg34
F18.0
sbs(g9
S'most'
p846
tp847
g0
(g14
g2
Ntp848
Rp849
(dp850
g18
F0.5
sg19
I17
sg20
g0
(g21
g22
(dp851
I01
I1
sNI16
stp852
Rp853
(dp854
g19
I17
sg27
Nsg28
(lp855
(NI16
tp856
a(I01
I1
tp857
asg32
Nsbsg33
I2
sg34
F18.0
sbs(g9
S'next'
p858
tp859
g0
(g14
g2
Ntp860
Rp861
(dp862
g18
F0.5
sg19
I17
sg20
g0
(g21
g22
(dp863
NI17
stp864
Rp865
(dp866
g19
I17
sg27
Nsg28
(lp867
(NI17
tp868
asg32
Nsbsg33
I2
sg34
F18.0
sbs(g8
S'food?'
p869
tp870
g0
(g14
g2
Ntp871
Rp872
(dp873
g18
F0.5
sg19
I19
sg20
g0
(g21
g22
(dp874
I01
I1
sNI18
stp875
Rp876
(dp877
g19
I19
sg27
Nsg28
(lp878
(NI18
tp879
a(I01
I1
tp880
asg32
Nsbsg33
I2
sg34
F20.0
sbs(g8
S'fog'
p881
tp882
g0
(g14
g2
Ntp883
Rp884
(dp885
g18
F0.5
sg19
I19
sg20
g0
(g21
g22
(dp886
I01
I1
sNI18
stp887
Rp888
(dp889
g19
I19
sg27
Nsg28
(lp890
(NI18
tp891
a(I01
I1
tp892
asg32
Nsbsg33
I2
sg34
F20.0
sbs(g8
S'wants'
p893
tp894
g0
(g14
g2
Ntp895
Rp896
(dp897
g18
F0.5
sg19
I19
sg20
g0
(g21
g22
(dp898
I01
I1
sNI18
stp899
Rp900
(dp901
g19
I19
sg27
Nsg28
(lp902
(NI18
tp903
a(I01
I1
tp904
asg32
Nsbsg33
I2
sg34
F20.0
sbs(g9
S'under'
p905
tp906
g0
(g14
g2
Ntp907
Rp908
(dp909
g18
F0.5
sg19
I17
sg20
g0
(g21
g22
(dp910
I01
I1
sNI16
stp911
Rp912
(dp913
g19
I17
sg27
Nsg28
(lp914
(NI16
tp915
a(I01
I1
tp916
asg32
Nsbsg33
I2
sg34
F18.0
sbs(g8
g799
tp917
g0
(g14
g2
Ntp918
Rp919
(dp920
g18
F0.5
sg19
I19
sg20
g0
(g21
g22
(dp921
NI19
stp922
Rp923
(dp924
g19
I19
sg27
Nsg28
(lp925
(NI19
tp926
asg32
Nsbsg33
I2
sg34
F20.0
sbs(g8
S'tour'
p927
tp928
g0
(g14
g2
Ntp929
Rp930
(dp931
g18
F0.5
sg19
I19
sg20
g0
(g21
g22
(dp932
I01
I1
sNI18
stp933
Rp934
(dp935
g19
I19
sg27
Nsg28
(lp936
(NI18
tp937
a(I01
I1
tp938
asg32
Nsbsg33
I2
sg34
F20.0
sbs(g8
S'q'
p939
tp940
g0
(g14
g2
Ntp941
Rp942
(dp943
g18
F0.5
sg19
I19
sg20
g0
(g21
g22
(dp944
I01
I1
sNI18
stp945
Rp946
(dp947
g19
I19
sg27
Nsg28
(lp948
(NI18
tp949
a(I01
I1
tp950
asg32
Nsbsg33
I2
sg34
F20.0
sbs(g8
S'ever'
p951
tp952
g0
(g14
g2
Ntp953
Rp954
(dp955
g18
F0.5
sg19
I19
sg20
g0
(g21
g22
(dp956
I01
I1
sNI18
stp957
Rp958
(dp959
g19
I19
sg27
Nsg28
(lp960
(NI18
tp961
a(I01
I1
tp962
asg32
Nsbsg33
I2
sg34
F20.0
sbs(g9
S'at'
p963
tp964
g0
(g14
g2
Ntp965
Rp966
(dp967
g18
F0.5
sg19
I17
sg20
g0
(g21
g22
(dp968
I01
I3
sNI14
stp969
Rp970
(dp971
g19
I17
sg27
Nsg28
(lp972
(NI14
tp973
a(I01
I3
tp974
asg32
Nsbsg33
I2
sg34
F18.0
sbs(g9
S'coming'
p975
tp976
g0
(g14
g2
Ntp977
Rp978
(dp979
g18
F0.5
sg19
I17
sg20
g0
(g21
g22
(dp980
I01
I1
sNI16
stp981
Rp982
(dp983
g19
I17
sg27
Nsg28
(lp984
(NI16
tp985
a(I01
I1
tp986
asg32
Nsbsg33
I2
sg34
F18.0
sbs(g9
S'school'
p987
tp988
g0
(g14
g2
Ntp989
Rp990
(dp991
g18
F0.5
sg19
I17
sg20
g0
(g21
g22
(dp992
NI17
stp993
Rp994
(dp995
g19
I17
sg27
Nsg28
(lp996
(NI17
tp997
asg32
Nsbsg33
I2
sg34
F18.0
sbs(g9
S','
p998
tp999
g0
(g14
g2
Ntp1000
Rp1001
(dp1002
g18
F0.5
sg19
I17
sg20
g0
(g21
g22
(dp1003
I01
I1
sNI16
stp1004
Rp1005
(dp1006
g19
I17
sg27
Nsg28
(lp1007
(NI16
tp1008
a(I01
I1
tp1009
asg32
Nsbsg33
I2
sg34
F18.0
sbs(g9
S'because'
p1010
tp1011
g0
(g14
g2
Ntp1012
Rp1013
(dp1014
g18
F0.5
sg19
I17
sg20
g0
(g21
g22
(dp1015
I01
I1
sNI16
stp1016
Rp1017
(dp1018
g19
I17
sg27
Nsg28
(lp1019
(NI16
tp1020
a(I01
I1
tp1021
asg32
Nsbsg33
I2
sg34
F18.0
sbs(g9
S'morning'
p1022
tp1023
g0
(g14
g2
Ntp1024
Rp1025
(dp1026
g18
F0.5
sg19
I17
sg20
g0
(g21
g22
(dp1027
I01
I1
sNI16
stp1028
Rp1029
(dp1030
g19
I17
sg27
Nsg28
(lp1031
(NI16
tp1032
a(I01
I1
tp1033
asg32
Nsbsg33
I2
sg34
F18.0
sbs(g8
S'beach'
p1034
tp1035
g0
(g14
g2
Ntp1036
Rp1037
(dp1038
g18
F0.5
sg19
I19
sg20
g0
(g21
g22
(dp1039
NI19
stp1040
Rp1041
(dp1042
g19
I19
sg27
Nsg28
(lp1043
(NI19
tp1044
asg32
Nsbsg33
I2
sg34
F20.0
sbs(g8
S'night'
p1045
tp1046
g0
(g14
g2
Ntp1047
Rp1048
(dp1049
g18
F0.5
sg19
I19
sg20
g0
(g21
g22
(dp1050
I01
I1
sNI18
stp1051
Rp1052
(dp1053
g19
I19
sg27
Nsg28
(lp1054
(NI18
tp1055
a(I01
I1
tp1056
asg32
Nsbsg33
I2
sg34
F20.0
sbs(g8
S'event'
p1057
tp1058
g0
(g14
g2
Ntp1059
Rp1060
(dp1061
g18
F0.5
sg19
I19
sg20
g0
(g21
g22
(dp1062
I01
I1
sNI18
stp1063
Rp1064
(dp1065
g19
I19
sg27
Nsg28
(lp1066
(NI18
tp1067
a(I01
I1
tp1068
asg32
Nsbsg33
I2
sg34
F20.0
sbs(g9
S'thinks'
p1069
tp1070
g0
(g14
g2
Ntp1071
Rp1072
(dp1073
g18
F0.5
sg19
I17
sg20
g0
(g21
g22
(dp1074
NI17
stp1075
Rp1076
(dp1077
g19
I17
sg27
Nsg28
(lp1078
(NI17
tp1079
asg32
Nsbsg33
I2
sg34
F18.0
sbs(g8
S'thank'
p1080
tp1081
g0
(g14
g2
Ntp1082
Rp1083
(dp1084
g18
F0.5
sg19
I19
sg20
g0
(g21
g22
(dp1085
I01
I1
sNI18
stp1086
Rp1087
(dp1088
g19
I19
sg27
Nsg28
(lp1089
(NI18
tp1090
a(I01
I1
tp1091
asg32
Nsbsg33
I2
sg34
F20.0
sbs(g9
S'please'
p1092
tp1093
g0
(g14
g2
Ntp1094
Rp1095
(dp1096
g18
F0.5
sg19
I17
sg20
g0
(g21
g22
(dp1097
NI17
stp1098
Rp1099
(dp1100
g19
I17
sg27
Nsg28
(lp1101
(NI17
tp1102
asg32
Nsbsg33
I2
sg34
F18.0
sbs(g9
S'new'
p1103
tp1104
g0
(g14
g2
Ntp1105
Rp1106
(dp1107
g18
F0.5
sg19
I17
sg20
g0
(g21
g22
(dp1108
I01
I1
sNI16
stp1109
Rp1110
(dp1111
g19
I17
sg27
Nsg28
(lp1112
(NI16
tp1113
a(I01
I1
tp1114
asg32
Nsbsg33
I2
sg34
F18.0
sbs(g9
S'like'
p1115
tp1116
g0
(g14
g2
Ntp1117
Rp1118
(dp1119
g18
F0.5
sg19
I17
sg20
g0
(g21
g22
(dp1120
I01
I1
sNI16
stp1121
Rp1122
(dp1123
g19
I17
sg27
Nsg28
(lp1124
(NI16
tp1125
a(I01
I1
tp1126
asg32
Nsbsg33
I2
sg34
F18.0
sbs(g8
S'open'
p1127
tp1128
g0
(g14
g2
Ntp1129
Rp1130
(dp1131
g18
F0.5
sg19
I19
sg20
g0
(g21
g22
(dp1132
I01
I1
sNI18
stp1133
Rp1134
(dp1135
g19
I19
sg27
Nsg28
(lp1136
(NI18
tp1137
a(I01
I1
tp1138
asg32
Nsbsg33
I2
sg34
F20.0
sbs(g8
g975
tp1139
g0
(g14
g2
Ntp1140
Rp1141
(dp1142
g18
F0.5
sg19
I19
sg20
g0
(g21
g22
(dp1143
NI19
stp1144
Rp1145
(dp1146
g19
I19
sg27
Nsg28
(lp1147
(NI19
tp1148
asg32
Nsbsg33
I2
sg34
F20.0
sbs(g8
g339
tp1149
g0
(g14
g2
Ntp1150
Rp1151
(dp1152
g18
F0.5
sg19
I19
sg20
g0
(g21
g22
(dp1153
I01
I1
sNI18
stp1154
Rp1155
(dp1156
g19
I19
sg27
Nsg28
(lp1157
(NI18
tp1158
a(I01
I1
tp1159
asg32
Nsbsg33
I2
sg34
F20.0
sbs(g8
S'service'
p1160
tp1161
g0
(g14
g2
Ntp1162
Rp1163
(dp1164
g18
F0.5
sg19
I19
sg20
g0
(g21
g22
(dp1165
NI19
stp1166
Rp1167
(dp1168
g19
I19
sg27
Nsg28
(lp1169
(NI19
tp1170
asg32
Nsbsg33
I2
sg34
F20.0
sbs(g8
S'pleasure'
p1171
tp1172
g0
(g14
g2
Ntp1173
Rp1174
(dp1175
g18
F0.5
sg19
I19
sg20
g0
(g21
g22
(dp1176
NI19
stp1177
Rp1178
(dp1179
g19
I19
sg27
Nsg28
(lp1180
(NI19
tp1181
asg32
Nsbsg33
I2
sg34
F20.0
sbs(g9
S'goodbye'
p1182
tp1183
g0
(g14
g2
Ntp1184
Rp1185
(dp1186
g18
F0.5
sg19
I17
sg20
g0
(g21
g22
(dp1187
NI17
stp1188
Rp1189
(dp1190
g19
I17
sg27
Nsg28
(lp1191
(NI17
tp1192
asg32
Nsbsg33
I2
sg34
F18.0
sbs(g8
S'anniversary'
p1193
tp1194
g0
(g14
g2
Ntp1195
Rp1196
(dp1197
g18
F0.5
sg19
I19
sg20
g0
(g21
g22
(dp1198
I01
I1
sNI18
stp1199
Rp1200
(dp1201
g19
I19
sg27
Nsg28
(lp1202
(NI18
tp1203
a(I01
I1
tp1204
asg32
Nsbsg33
I2
sg34
F20.0
sbs(g8
S'me'
p1205
tp1206
g0
(g14
g2
Ntp1207
Rp1208
(dp1209
g18
F0.5
sg19
I19
sg20
g0
(g21
g22
(dp1210
I01
I2
sNI17
stp1211
Rp1212
(dp1213
g19
I19
sg27
Nsg28
(lp1214
(NI17
tp1215
a(I01
I2
tp1216
asg32
Nsbsg33
I2
sg34
F20.0
sbs(g8
S'friday.'
p1217
tp1218
g0
(g14
g2
Ntp1219
Rp1220
(dp1221
g18
F0.5
sg19
I19
sg20
g0
(g21
g22
(dp1222
NI19
stp1223
Rp1224
(dp1225
g19
I19
sg27
Nsg28
(lp1226
(NI19
tp1227
asg32
Nsbsg33
I2
sg34
F20.0
sbs(g8
S'then'
p1228
tp1229
g0
(g14
g2
Ntp1230
Rp1231
(dp1232
g18
F0.5
sg19
I19
sg20
g0
(g21
g22
(dp1233
I01
I1
sNI18
stp1234
Rp1235
(dp1236
g19
I19
sg27
Nsg28
(lp1237
(NI18
tp1238
a(I01
I1
tp1239
asg32
Nsbsg33
I2
sg34
F20.0
sbs(g8
S'mom'
p1240
tp1241
g0
(g14
g2
Ntp1242
Rp1243
(dp1244
g18
F0.5
sg19
I19
sg20
g0
(g21
g22
(dp1245
NI19
stp1246
Rp1247
(dp1248
g19
I19
sg27
Nsg28
(lp1249
(NI19
tp1250
asg32
Nsbsg33
I2
sg34
F20.0
sbs(g8
S'('
p1251
tp1252
g0
(g14
g2
Ntp1253
Rp1254
(dp1255
g18
F0.5
sg19
I19
sg20
g0
(g21
g22
(dp1256
NI19
stp1257
Rp1258
(dp1259
g19
I19
sg27
Nsg28
(lp1260
(NI19
tp1261
asg32
Nsbsg33
I2
sg34
F20.0
sbs(g8
S'speak'
p1262
tp1263
g0
(g14
g2
Ntp1264
Rp1265
(dp1266
g18
F0.5
sg19
I19
sg20
g0
(g21
g22
(dp1267
I01
I1
sNI18
stp1268
Rp1269
(dp1270
g19
I19
sg27
Nsg28
(lp1271
(NI18
tp1272
a(I01
I1
tp1273
asg32
Nsbsg33
I2
sg34
F20.0
sbs(g9
g488
tp1274
g0
(g14
g2
Ntp1275
Rp1276
(dp1277
g18
F0.5
sg19
I17
sg20
g0
(g21
g22
(dp1278
I01
I1
sNI16
stp1279
Rp1280
(dp1281
g19
I17
sg27
Nsg28
(lp1282
(NI16
tp1283
a(I01
I1
tp1284
asg32
Nsbsg33
I2
sg34
F18.0
sbs(g9
S'lives'
p1285
tp1286
g0
(g14
g2
Ntp1287
Rp1288
(dp1289
g18
F0.5
sg19
I17
sg20
g0
(g21
g22
(dp1290
I01
I1
sNI16
stp1291
Rp1292
(dp1293
g19
I17
sg27
Nsg28
(lp1294
(NI16
tp1295
a(I01
I1
tp1296
asg32
Nsbsg33
I2
sg34
F18.0
sbs(g8
S'going'
p1297
tp1298
g0
(g14
g2
Ntp1299
Rp1300
(dp1301
g18
F0.5
sg19
I19
sg20
g0
(g21
g22
(dp1302
I01
I1
sNI18
stp1303
Rp1304
(dp1305
g19
I19
sg27
Nsg28
(lp1306
(NI18
tp1307
a(I01
I1
tp1308
asg32
Nsbsg33
I2
sg34
F20.0
sbs(g8
S'wife'
p1309
tp1310
g0
(g14
g2
Ntp1311
Rp1312
(dp1313
g18
F0.5
sg19
I19
sg20
g0
(g21
g22
(dp1314
NI19
stp1315
Rp1316
(dp1317
g19
I19
sg27
Nsg28
(lp1318
(NI19
tp1319
asg32
Nsbsg33
I2
sg34
F20.0
sbs(g8
g568
tp1320
g0
(g14
g2
Ntp1321
Rp1322
(dp1323
g18
F0.5
sg19
I19
sg20
g0
(g21
g22
(dp1324
NI19
stp1325
Rp1326
(dp1327
g19
I19
sg27
Nsg28
(lp1328
(NI19
tp1329
asg32
Nsbsg33
I2
sg34
F20.0
sbs(g8
S'drink'
p1330
tp1331
g0
(g14
g2
Ntp1332
Rp1333
(dp1334
g18
F0.5
sg19
I19
sg20
g0
(g21
g22
(dp1335
I01
I1
sNI18
stp1336
Rp1337
(dp1338
g19
I19
sg27
Nsg28
(lp1339
(NI18
tp1340
a(I01
I1
tp1341
asg32
Nsbsg33
I2
sg34
F20.0
sbs(g9
S'be'
p1342
tp1343
g0
(g14
g2
Ntp1344
Rp1345
(dp1346
g18
F0.5
sg19
I17
sg20
g0
(g21
g22
(dp1347
I01
I1
sNI16
stp1348
Rp1349
(dp1350
g19
I17
sg27
Nsg28
(lp1351
(NI16
tp1352
a(I01
I1
tp1353
asg32
Nsbsg33
I2
sg34
F18.0
sbs(g8
g1285
tp1354
g0
(g14
g2
Ntp1355
Rp1356
(dp1357
g18
F0.5
sg19
I19
sg20
g0
(g21
g22
(dp1358
NI19
stp1359
Rp1360
(dp1361
g19
I19
sg27
Nsg28
(lp1362
(NI19
tp1363
asg32
Nsbsg33
I2
sg34
F20.0
sbs(g8
S'day'
p1364
tp1365
g0
(g14
g2
Ntp1366
Rp1367
(dp1368
g18
F0.5
sg19
I19
sg20
g0
(g21
g22
(dp1369
I01
I1
sNI18
stp1370
Rp1371
(dp1372
g19
I19
sg27
Nsg28
(lp1373
(NI18
tp1374
a(I01
I1
tp1375
asg32
Nsbsg33
I2
sg34
F20.0
sbs(g9
S'free'
p1376
tp1377
g0
(g14
g2
Ntp1378
Rp1379
(dp1380
g18
F0.5
sg19
I17
sg20
g0
(g21
g22
(dp1381
I01
I1
sNI16
stp1382
Rp1383
(dp1384
g19
I17
sg27
Nsg28
(lp1385
(NI16
tp1386
a(I01
I1
tp1387
asg32
Nsbsg33
I2
sg34
F18.0
sbs(g8
S'discovered'
p1388
tp1389
g0
(g14
g2
Ntp1390
Rp1391
(dp1392
g18
F0.5
sg19
I19
sg20
g0
(g21
g22
(dp1393
NI19
stp1394
Rp1395
(dp1396
g19
I19
sg27
Nsg28
(lp1397
(NI19
tp1398
asg32
Nsbsg33
I2
sg34
F20.0
sbs(g9
g1388
tp1399
g0
(g14
g2
Ntp1400
Rp1401
(dp1402
g18
F0.5
sg19
I17
sg20
g0
(g21
g22
(dp1403
I01
I1
sNI16
stp1404
Rp1405
(dp1406
g19
I17
sg27
Nsg28
(lp1407
(NI16
tp1408
a(I01
I1
tp1409
asg32
Nsbsg33
I2
sg34
F18.0
sbs(g8
g684
tp1410
g0
(g14
g2
Ntp1411
Rp1412
(dp1413
g18
F0.5
sg19
I19
sg20
g0
(g21
g22
(dp1414
I01
I1
sNI18
stp1415
Rp1416
(dp1417
g19
I19
sg27
Nsg28
(lp1418
(NI18
tp1419
a(I01
I1
tp1420
asg32
Nsbsg33
I2
sg34
F20.0
sbs(g9
S'their'
p1421
tp1422
g0
(g14
g2
Ntp1423
Rp1424
(dp1425
g18
F0.5
sg19
I17
sg20
g0
(g21
g22
(dp1426
I01
I2
sNI15
stp1427
Rp1428
(dp1429
g19
I17
sg27
Nsg28
(lp1430
(NI15
tp1431
a(I01
I2
tp1432
asg32
Nsbsg33
I2
sg34
F18.0
sbs(g8
g1421
tp1433
g0
(g14
g2
Ntp1434
Rp1435
(dp1436
g18
F0.5
sg19
I19
sg20
g0
(g21
g22
(dp1437
NI19
stp1438
Rp1439
(dp1440
g19
I19
sg27
Nsg28
(lp1441
(NI19
tp1442
asg32
Nsbsg33
I2
sg34
F20.0
sbs(g8
S'filled'
p1443
tp1444
g0
(g14
g2
Ntp1445
Rp1446
(dp1447
g18
F0.5
sg19
I19
sg20
g0
(g21
g22
(dp1448
NI19
stp1449
Rp1450
(dp1451
g19
I19
sg27
Nsg28
(lp1452
(NI19
tp1453
asg32
Nsbsg33
I2
sg34
F20.0
sbs(g8
S'swing'
p1454
tp1455
g0
(g14
g2
Ntp1456
Rp1457
(dp1458
g18
F0.5
sg19
I19
sg20
g0
(g21
g22
(dp1459
I01
I1
sNI18
stp1460
Rp1461
(dp1462
g19
I19
sg27
Nsg28
(lp1463
(NI18
tp1464
a(I01
I1
tp1465
asg32
Nsbsg33
I2
sg34
F20.0
sbs(g9
S'day'
p1466
tp1467
g0
(g14
g2
Ntp1468
Rp1469
(dp1470
g18
F0.5
sg19
I17
sg20
g0
(g21
g22
(dp1471
I01
I1
sNI16
stp1472
Rp1473
(dp1474
g19
I17
sg27
Nsg28
(lp1475
(NI16
tp1476
a(I01
I1
tp1477
asg32
Nsbsg33
I2
sg34
F18.0
sbs(g9
S'sky'
p1478
tp1479
g0
(g14
g2
Ntp1480
Rp1481
(dp1482
g18
F0.5
sg19
I17
sg20
g0
(g21
g22
(dp1483
I01
I1
sNI16
stp1484
Rp1485
(dp1486
g19
I17
sg27
Nsg28
(lp1487
(NI16
tp1488
a(I01
I1
tp1489
asg32
Nsbsg33
I2
sg34
F18.0
sbs(g8
S'roast'
p1490
tp1491
g0
(g14
g2
Ntp1492
Rp1493
(dp1494
g18
F0.5
sg19
I19
sg20
g0
(g21
g22
(dp1495
I01
I1
sNI18
stp1496
Rp1497
(dp1498
g19
I19
sg27
Nsg28
(lp1499
(NI18
tp1500
a(I01
I1
tp1501
asg32
Nsbsg33
I2
sg34
F20.0
sbs(g9
S'just'
p1502
tp1503
g0
(g14
g2
Ntp1504
Rp1505
(dp1506
g18
F0.5
sg19
I17
sg20
g0
(g21
g22
(dp1507
I01
I2
sNI15
stp1508
Rp1509
(dp1510
g19
I17
sg27
Nsg28
(lp1511
(NI15
tp1512
a(I01
I2
tp1513
asg32
Nsbsg33
I2
sg34
F18.0
sbs(g9
S'met'
p1514
tp1515
g0
(g14
g2
Ntp1516
Rp1517
(dp1518
g18
F0.5
sg19
I17
sg20
g0
(g21
g22
(dp1519
I01
I1
sNI16
stp1520
Rp1521
(dp1522
g19
I17
sg27
Nsg28
(lp1523
(NI16
tp1524
a(I01
I1
tp1525
asg32
Nsbsg33
I2
sg34
F18.0
sbs(g8
S'society'
p1526
tp1527
g0
(g14
g2
Ntp1528
Rp1529
(dp1530
g18
F0.5
sg19
I19
sg20
g0
(g21
g22
(dp1531
NI19
stp1532
Rp1533
(dp1534
g19
I19
sg27
Nsg28
(lp1535
(NI19
tp1536
asg32
Nsbsg33
I2
sg34
F20.0
sbs(g9
S'very'
p1537
tp1538
g0
(g14
g2
Ntp1539
Rp1540
(dp1541
g18
F0.5
sg19
I17
sg20
g0
(g21
g22
(dp1542
I01
I1
sNI16
stp1543
Rp1544
(dp1545
g19
I17
sg27
Nsg28
(lp1546
(NI16
tp1547
a(I01
I1
tp1548
asg32
Nsbsg33
I2
sg34
F18.0
sbs(g8
S'wicked'
p1549
tp1550
g0
(g14
g2
Ntp1551
Rp1552
(dp1553
g18
F0.5
sg19
I19
sg20
g0
(g21
g22
(dp1554
I01
I1
sNI18
stp1555
Rp1556
(dp1557
g19
I19
sg27
Nsg28
(lp1558
(NI18
tp1559
a(I01
I1
tp1560
asg32
Nsbsg33
I2
sg34
F20.0
sbs(g9
S'music'
p1561
tp1562
g0
(g14
g2
Ntp1563
Rp1564
(dp1565
g18
F0.5
sg19
I17
sg20
g0
(g21
g22
(dp1566
I01
I1
sNI16
stp1567
Rp1568
(dp1569
g19
I17
sg27
Nsg28
(lp1570
(NI16
tp1571
a(I01
I1
tp1572
asg32
Nsbsg33
I2
sg34
F18.0
sbs(g9
S'is'
p1573
tp1574
g0
(g14
g2
Ntp1575
Rp1576
(dp1577
g18
F0.5
sg19
I17
sg20
g0
(g21
g22
(dp1578
I01
I11
sNI6
stp1579
Rp1580
(dp1581
g19
I17
sg27
Nsg28
(lp1582
(I01
I11
tp1583
a(NI6
tp1584
asg32
Nsbsg33
I2
sg34
F18.0
sbs(g8
S'fancy'
p1585
tp1586
g0
(g14
g2
Ntp1587
Rp1588
(dp1589
g18
F0.5
sg19
I19
sg20
g0
(g21
g22
(dp1590
NI19
stp1591
Rp1592
(dp1593
g19
I19
sg27
Nsg28
(lp1594
(NI19
tp1595
asg32
Nsbsg33
I2
sg34
F20.0
sbs(g8
g1022
tp1596
g0
(g14
g2
Ntp1597
Rp1598
(dp1599
g18
F0.5
sg19
I19
sg20
g0
(g21
g22
(dp1600
NI19
stp1601
Rp1602
(dp1603
g19
I19
sg27
Nsg28
(lp1604
(NI19
tp1605
asg32
Nsbsg33
I2
sg34
F20.0
sbs(g9
g47
tp1606
g0
(g14
g2
Ntp1607
Rp1608
(dp1609
g18
F0.5
sg19
I17
sg20
g0
(g21
g22
(dp1610
I01
I1
sNI16
stp1611
Rp1612
(dp1613
g19
I17
sg27
Nsg28
(lp1614
(NI16
tp1615
a(I01
I1
tp1616
asg32
Nsbsg33
I2
sg34
F18.0
sbs(g9
S'see'
p1617
tp1618
g0
(g14
g2
Ntp1619
Rp1620
(dp1621
g18
F0.5
sg19
I17
sg20
g0
(g21
g22
(dp1622
NI17
stp1623
Rp1624
(dp1625
g19
I17
sg27
Nsg28
(lp1626
(NI17
tp1627
asg32
Nsbsg33
I2
sg34
F18.0
sbs(g8
g1092
tp1628
g0
(g14
g2
Ntp1629
Rp1630
(dp1631
g18
F0.5
sg19
I19
sg20
g0
(g21
g22
(dp1632
I01
I1
sNI18
stp1633
Rp1634
(dp1635
g19
I19
sg27
Nsg28
(lp1636
(NI18
tp1637
a(I01
I1
tp1638
asg32
Nsbsg33
I2
sg34
F20.0
sbs(g8
S'prepared'
p1639
tp1640
g0
(g14
g2
Ntp1641
Rp1642
(dp1643
g18
F0.5
sg19
I19
sg20
g0
(g21
g22
(dp1644
I01
I1
sNI18
stp1645
Rp1646
(dp1647
g19
I19
sg27
Nsg28
(lp1648
(NI18
tp1649
a(I01
I1
tp1650
asg32
Nsbsg33
I2
sg34
F20.0
sbs(g9
S'you'
p1651
tp1652
g0
(g14
g2
Ntp1653
Rp1654
(dp1655
g18
F0.5
sg19
I17
sg20
g0
(g21
g22
(dp1656
I01
I1
sNI16
stp1657
Rp1658
(dp1659
g19
I17
sg27
Nsg28
(lp1660
(NI16
tp1661
a(I01
I1
tp1662
asg32
Nsbsg33
I2
sg34
F18.0
sbs(g8
S'was'
p1663
tp1664
g0
(g14
g2
Ntp1665
Rp1666
(dp1667
g18
F0.5
sg19
I19
sg20
g0
(g21
g22
(dp1668
I01
I1
sNI18
stp1669
Rp1670
(dp1671
g19
I19
sg27
Nsg28
(lp1672
(NI18
tp1673
a(I01
I1
tp1674
asg32
Nsbsg33
I2
sg34
F20.0
sbs(g9
S'things'
p1675
tp1676
g0
(g14
g2
Ntp1677
Rp1678
(dp1679
g18
F0.5
sg19
I17
sg20
g0
(g21
g22
(dp1680
NI17
stp1681
Rp1682
(dp1683
g19
I17
sg27
Nsg28
(lp1684
(NI17
tp1685
asg32
Nsbsg33
I2
sg34
F18.0
sbs(g8
S'for'
p1686
tp1687
g0
(g14
g2
Ntp1688
Rp1689
(dp1690
g18
F0.5
sg19
I19
sg20
g0
(g21
g22
(dp1691
I01
I9
sNI10
stp1692
Rp1693
(dp1694
g19
I19
sg27
Nsg28
(lp1695
(NI10
tp1696
a(I01
I9
tp1697
asg32
Nsbsg33
I2
sg34
F20.0
sbs(g8
S'nature'
p1698
tp1699
g0
(g14
g2
Ntp1700
Rp1701
(dp1702
g18
F0.5
sg19
I19
sg20
g0
(g21
g22
(dp1703
I01
I1
sNI18
stp1704
Rp1705
(dp1706
g19
I19
sg27
Nsg28
(lp1707
(NI18
tp1708
a(I01
I1
tp1709
asg32
Nsbsg33
I2
sg34
F20.0
sbs(g9
S'sooo'
p1710
tp1711
g0
(g14
g2
Ntp1712
Rp1713
(dp1714
g18
F0.5
sg19
I17
sg20
g0
(g21
g22
(dp1715
I01
I1
sNI16
stp1716
Rp1717
(dp1718
g19
I17
sg27
Nsg28
(lp1719
(NI16
tp1720
a(I01
I1
tp1721
asg32
Nsbsg33
I2
sg34
F18.0
sbs(g8
S'creative'
p1722
tp1723
g0
(g14
g2
Ntp1724
Rp1725
(dp1726
g18
F0.5
sg19
I19
sg20
g0
(g21
g22
(dp1727
I01
I1
sNI18
stp1728
Rp1729
(dp1730
g19
I19
sg27
Nsg28
(lp1731
(NI18
tp1732
a(I01
I1
tp1733
asg32
Nsbsg33
I2
sg34
F20.0
sbs(g8
g12
tp1734
g0
(g14
g2
Ntp1735
Rp1736
(dp1737
g18
F0.5
sg19
I19
sg20
g0
(g21
g22
(dp1738
NI19
stp1739
Rp1740
(dp1741
g19
I19
sg27
Nsg28
(lp1742
(NI19
tp1743
asg32
Nsbsg33
I2
sg34
F20.0
sbs(g8
S'many'
p1744
tp1745
g0
(g14
g2
Ntp1746
Rp1747
(dp1748
g18
F0.5
sg19
I19
sg20
g0
(g21
g22
(dp1749
I01
I1
sNI18
stp1750
Rp1751
(dp1752
g19
I19
sg27
Nsg28
(lp1753
(NI18
tp1754
a(I01
I1
tp1755
asg32
Nsbsg33
I2
sg34
F20.0
sbs(g9
S'language'
p1756
tp1757
g0
(g14
g2
Ntp1758
Rp1759
(dp1760
g18
F0.5
sg19
I17
sg20
g0
(g21
g22
(dp1761
NI17
stp1762
Rp1763
(dp1764
g19
I17
sg27
Nsg28
(lp1765
(NI17
tp1766
asg32
Nsbsg33
I2
sg34
F18.0
sbs(g8
S'check'
p1767
tp1768
g0
(g14
g2
Ntp1769
Rp1770
(dp1771
g18
F0.5
sg19
I19
sg20
g0
(g21
g22
(dp1772
I01
I1
sNI18
stp1773
Rp1774
(dp1775
g19
I19
sg27
Nsg28
(lp1776
(NI18
tp1777
a(I01
I1
tp1778
asg32
Nsbsg33
I2
sg34
F20.0
sbs(g8
S'glee'
p1779
tp1780
g0
(g14
g2
Ntp1781
Rp1782
(dp1783
g18
F0.5
sg19
I19
sg20
g0
(g21
g22
(dp1784
I01
I1
sNI18
stp1785
Rp1786
(dp1787
g19
I19
sg27
Nsg28
(lp1788
(NI18
tp1789
a(I01
I1
tp1790
asg32
Nsbsg33
I2
sg34
F20.0
sbs(g9
g1443
tp1791
g0
(g14
g2
Ntp1792
Rp1793
(dp1794
g18
F0.5
sg19
I17
sg20
g0
(g21
g22
(dp1795
I01
I1
sNI16
stp1796
Rp1797
(dp1798
g19
I17
sg27
Nsg28
(lp1799
(NI16
tp1800
a(I01
I1
tp1801
asg32
Nsbsg33
I2
sg34
F18.0
sbs(g8
g177
tp1802
g0
(g14
g2
Ntp1803
Rp1804
(dp1805
g18
F0.5
sg19
I19
sg20
g0
(g21
g22
(dp1806
NI19
stp1807
Rp1808
(dp1809
g19
I19
sg27
Nsg28
(lp1810
(NI19
tp1811
asg32
Nsbsg33
I2
sg34
F20.0
sbs(g9
S'somethin'
p1812
tp1813
g0
(g14
g2
Ntp1814
Rp1815
(dp1816
g18
F0.5
sg19
I17
sg20
g0
(g21
g22
(dp1817
NI17
stp1818
Rp1819
(dp1820
g19
I17
sg27
Nsg28
(lp1821
(NI17
tp1822
asg32
Nsbsg33
I2
sg34
F18.0
sbs(g8
S'are'
p1823
tp1824
g0
(g14
g2
Ntp1825
Rp1826
(dp1827
g18
F0.5
sg19
I19
sg20
g0
(g21
g22
(dp1828
NI19
stp1829
Rp1830
(dp1831
g19
I19
sg27
Nsg28
(lp1832
(NI19
tp1833
asg32
Nsbsg33
I2
sg34
F20.0
sbs(g8
g1182
tp1834
g0
(g14
g2
Ntp1835
Rp1836
(dp1837
g18
F0.5
sg19
I19
sg20
g0
(g21
g22
(dp1838
I01
I1
sNI18
stp1839
Rp1840
(dp1841
g19
I19
sg27
Nsg28
(lp1842
(NI18
tp1843
a(I01
I1
tp1844
asg32
Nsbsg33
I2
sg34
F20.0
sbs(g8
S'near'
p1845
tp1846
g0
(g14
g2
Ntp1847
Rp1848
(dp1849
g18
F0.5
sg19
I19
sg20
g0
(g21
g22
(dp1850
NI19
stp1851
Rp1852
(dp1853
g19
I19
sg27
Nsg28
(lp1854
(NI19
tp1855
asg32
Nsbsg33
I2
sg34
F20.0
sbs(g8
S'propfemale'
p1856
tp1857
g0
(g14
g2
Ntp1858
Rp1859
(dp1860
g18
F0.5
sg19
I19
sg20
g0
(g21
g22
(dp1861
I01
I3
sNI16
stp1862
Rp1863
(dp1864
g19
I19
sg27
Nsg28
(lp1865
(NI16
tp1866
a(I01
I3
tp1867
asg32
Nsbsg33
I2
sg34
F20.0
sbs(g8
S'serve'
p1868
tp1869
g0
(g14
g2
Ntp1870
Rp1871
(dp1872
g18
F0.5
sg19
I19
sg20
g0
(g21
g22
(dp1873
I01
I1
sNI18
stp1874
Rp1875
(dp1876
g19
I19
sg27
Nsg28
(lp1877
(NI18
tp1878
a(I01
I1
tp1879
asg32
Nsbsg33
I2
sg34
F20.0
sbs(g9
g1779
tp1880
g0
(g14
g2
Ntp1881
Rp1882
(dp1883
g18
F0.5
sg19
I17
sg20
g0
(g21
g22
(dp1884
NI17
stp1885
Rp1886
(dp1887
g19
I17
sg27
Nsg28
(lp1888
(NI17
tp1889
asg32
Nsbsg33
I2
sg34
F18.0
sbs(g8
S'cross'
p1890
tp1891
g0
(g14
g2
Ntp1892
Rp1893
(dp1894
g18
F0.5
sg19
I19
sg20
g0
(g21
g22
(dp1895
I01
I1
sNI18
stp1896
Rp1897
(dp1898
g19
I19
sg27
Nsg28
(lp1899
(NI18
tp1900
a(I01
I1
tp1901
asg32
Nsbsg33
I2
sg34
F20.0
sbs(g8
S'enjoying'
p1902
tp1903
g0
(g14
g2
Ntp1904
Rp1905
(dp1906
g18
F0.5
sg19
I19
sg20
g0
(g21
g22
(dp1907
NI19
stp1908
Rp1909
(dp1910
g19
I19
sg27
Nsg28
(lp1911
(NI19
tp1912
asg32
Nsbsg33
I2
sg34
F20.0
sbs(g8
S'you.'
p1913
tp1914
g0
(g14
g2
Ntp1915
Rp1916
(dp1917
g18
F0.5
sg19
I19
sg20
g0
(g21
g22
(dp1918
NI19
stp1919
Rp1920
(dp1921
g19
I19
sg27
Nsg28
(lp1922
(NI19
tp1923
asg32
Nsbsg33
I2
sg34
F20.0
sbs(g9
S'related'
p1924
tp1925
g0
(g14
g2
Ntp1926
Rp1927
(dp1928
g18
F0.5
sg19
I17
sg20
g0
(g21
g22
(dp1929
NI17
stp1930
Rp1931
(dp1932
g19
I17
sg27
Nsg28
(lp1933
(NI17
tp1934
asg32
Nsbsg33
I2
sg34
F18.0
sbs(g8
S'everyone'
p1935
tp1936
g0
(g14
g2
Ntp1937
Rp1938
(dp1939
g18
F0.5
sg19
I19
sg20
g0
(g21
g22
(dp1940
I01
I1
sNI18
stp1941
Rp1942
(dp1943
g19
I19
sg27
Nsg28
(lp1944
(NI18
tp1945
a(I01
I1
tp1946
asg32
Nsbsg33
I2
sg34
F20.0
sbs(g8
S'positive'
p1947
tp1948
g0
(g14
g2
Ntp1949
Rp1950
(dp1951
g18
F0.5
sg19
I19
sg20
g0
(g21
g22
(dp1952
I01
I1
sNI18
stp1953
Rp1954
(dp1955
g19
I19
sg27
Nsg28
(lp1956
(NI18
tp1957
a(I01
I1
tp1958
asg32
Nsbsg33
I2
sg34
F20.0
sbs(g8
S'starting'
p1959
tp1960
g0
(g14
g2
Ntp1961
Rp1962
(dp1963
g18
F0.5
sg19
I19
sg20
g0
(g21
g22
(dp1964
NI19
stp1965
Rp1966
(dp1967
g19
I19
sg27
Nsg28
(lp1968
(NI19
tp1969
asg32
Nsbsg33
I2
sg34
F20.0
sbs(g8
S'over'
p1970
tp1971
g0
(g14
g2
Ntp1972
Rp1973
(dp1974
g18
F0.5
sg19
I19
sg20
g0
(g21
g22
(dp1975
NI19
stp1976
Rp1977
(dp1978
g19
I19
sg27
Nsg28
(lp1979
(NI19
tp1980
asg32
Nsbsg33
I2
sg34
F20.0
sbs(g9
S'get'
p1981
tp1982
g0
(g14
g2
Ntp1983
Rp1984
(dp1985
g18
F0.5
sg19
I17
sg20
g0
(g21
g22
(dp1986
I01
I1
sNI16
stp1987
Rp1988
(dp1989
g19
I17
sg27
Nsg28
(lp1990
(NI16
tp1991
a(I01
I1
tp1992
asg32
Nsbsg33
I2
sg34
F18.0
sbs(g9
S'much'
p1993
tp1994
g0
(g14
g2
Ntp1995
Rp1996
(dp1997
g18
F0.5
sg19
I17
sg20
g0
(g21
g22
(dp1998
I01
I1
sNI16
stp1999
Rp2000
(dp2001
g19
I17
sg27
Nsg28
(lp2002
(NI16
tp2003
a(I01
I1
tp2004
asg32
Nsbsg33
I2
sg34
F18.0
sbs(g9
g616
tp2005
g0
(g14
g2
Ntp2006
Rp2007
(dp2008
g18
F0.5
sg19
I17
sg20
g0
(g21
g22
(dp2009
I01
I1
sNI16
stp2010
Rp2011
(dp2012
g19
I17
sg27
Nsg28
(lp2013
(NI16
tp2014
a(I01
I1
tp2015
asg32
Nsbsg33
I2
sg34
F18.0
sbs(g9
S'before'
p2016
tp2017
g0
(g14
g2
Ntp2018
Rp2019
(dp2020
g18
F0.5
sg19
I17
sg20
g0
(g21
g22
(dp2021
NI17
stp2022
Rp2023
(dp2024
g19
I17
sg27
Nsg28
(lp2025
(NI17
tp2026
asg32
Nsbsg33
I2
sg34
F18.0
sbs(g8
S'<x>'
p2027
tp2028
g0
(g14
g2
Ntp2029
Rp2030
(dp2031
g18
F0.5
sg19
I19
sg20
g0
(g21
g22
(dp2032
I01
I16
sNI3
stp2033
Rp2034
(dp2035
g19
I19
sg27
Nsg28
(lp2036
(I01
I16
tp2037
a(NI3
tp2038
asg32
Nsbsg33
I2
sg34
F20.0
sbs(g9
S'who'
p2039
tp2040
g0
(g14
g2
Ntp2041
Rp2042
(dp2043
g18
F0.5
sg19
I17
sg20
g0
(g21
g22
(dp2044
I01
I1
sNI16
stp2045
Rp2046
(dp2047
g19
I17
sg27
Nsg28
(lp2048
(NI16
tp2049
a(I01
I1
tp2050
asg32
Nsbsg33
I2
sg34
F18.0
sbs(g8
S'week'
p2051
tp2052
g0
(g14
g2
Ntp2053
Rp2054
(dp2055
g18
F0.5
sg19
I19
sg20
g0
(g21
g22
(dp2056
NI19
stp2057
Rp2058
(dp2059
g19
I19
sg27
Nsg28
(lp2060
(NI19
tp2061
asg32
Nsbsg33
I2
sg34
F20.0
sbs(g9
S'thursday'
p2062
tp2063
g0
(g14
g2
Ntp2064
Rp2065
(dp2066
g18
F0.5
sg19
I17
sg20
g0
(g21
g22
(dp2067
NI17
stp2068
Rp2069
(dp2070
g19
I17
sg27
Nsg28
(lp2071
(NI17
tp2072
asg32
Nsbsg33
I2
sg34
F18.0
sbs(g9
S'had'
p2073
tp2074
g0
(g14
g2
Ntp2075
Rp2076
(dp2077
g18
F0.5
sg19
I17
sg20
g0
(g21
g22
(dp2078
I01
I1
sNI16
stp2079
Rp2080
(dp2081
g19
I17
sg27
Nsg28
(lp2082
(NI16
tp2083
a(I01
I1
tp2084
asg32
Nsbsg33
I2
sg34
F18.0
sbs(g8
S'artists'
p2085
tp2086
g0
(g14
g2
Ntp2087
Rp2088
(dp2089
g18
F0.5
sg19
I19
sg20
g0
(g21
g22
(dp2090
NI19
stp2091
Rp2092
(dp2093
g19
I19
sg27
Nsg28
(lp2094
(NI19
tp2095
asg32
Nsbsg33
I2
sg34
F20.0
sbs(g8
g499
tp2096
g0
(g14
g2
Ntp2097
Rp2098
(dp2099
g18
F0.5
sg19
I19
sg20
g0
(g21
g22
(dp2100
I01
I1
sNI18
stp2101
Rp2102
(dp2103
g19
I19
sg27
Nsg28
(lp2104
(NI18
tp2105
a(I01
I1
tp2106
asg32
Nsbsg33
I2
sg34
F20.0
sbs(g8
S'best'
p2107
tp2108
g0
(g14
g2
Ntp2109
Rp2110
(dp2111
g18
F0.5
sg19
I19
sg20
g0
(g21
g22
(dp2112
I01
I1
sNI18
stp2113
Rp2114
(dp2115
g19
I19
sg27
Nsg28
(lp2116
(NI18
tp2117
a(I01
I1
tp2118
asg32
Nsbsg33
I2
sg34
F20.0
sbs(g9
g2107
tp2119
g0
(g14
g2
Ntp2120
Rp2121
(dp2122
g18
F0.5
sg19
I17
sg20
g0
(g21
g22
(dp2123
NI17
stp2124
Rp2125
(dp2126
g19
I17
sg27
Nsg28
(lp2127
(NI17
tp2128
asg32
Nsbsg33
I2
sg34
F18.0
sbs(g9
S'so'
p2129
tp2130
g0
(g14
g2
Ntp2131
Rp2132
(dp2133
g18
F0.5
sg19
I17
sg20
g0
(g21
g22
(dp2134
I01
I1
sNI16
stp2135
Rp2136
(dp2137
g19
I17
sg27
Nsg28
(lp2138
(NI16
tp2139
a(I01
I1
tp2140
asg32
Nsbsg33
I2
sg34
F18.0
sbs(g9
g386
tp2141
g0
(g14
g2
Ntp2142
Rp2143
(dp2144
g18
F0.5
sg19
I17
sg20
g0
(g21
g22
(dp2145
NI17
stp2146
Rp2147
(dp2148
g19
I17
sg27
Nsg28
(lp2149
(NI17
tp2150
asg32
Nsbsg33
I2
sg34
F18.0
sbs(g9
S'passed'
p2151
tp2152
g0
(g14
g2
Ntp2153
Rp2154
(dp2155
g18
F0.5
sg19
I17
sg20
g0
(g21
g22
(dp2156
I01
I1
sNI16
stp2157
Rp2158
(dp2159
g19
I17
sg27
Nsg28
(lp2160
(NI16
tp2161
a(I01
I1
tp2162
asg32
Nsbsg33
I2
sg34
F18.0
sbs(g9
S'more'
p2163
tp2164
g0
(g14
g2
Ntp2165
Rp2166
(dp2167
g18
F0.5
sg19
I17
sg20
g0
(g21
g22
(dp2168
I01
I3
sNI14
stp2169
Rp2170
(dp2171
g19
I17
sg27
Nsg28
(lp2172
(NI14
tp2173
a(I01
I3
tp2174
asg32
Nsbsg33
I2
sg34
F18.0
sbs(g8
g433
tp2175
g0
(g14
g2
Ntp2176
Rp2177
(dp2178
g18
F0.5
sg19
I19
sg20
g0
(g21
g22
(dp2179
I01
I1
sNI18
stp2180
Rp2181
(dp2182
g19
I19
sg27
Nsg28
(lp2183
(NI18
tp2184
a(I01
I1
tp2185
asg32
Nsbsg33
I2
sg34
F20.0
sbs(g9
S'group'
p2186
tp2187
g0
(g14
g2
Ntp2188
Rp2189
(dp2190
g18
F0.5
sg19
I17
sg20
g0
(g21
g22
(dp2191
I01
I1
sNI16
stp2192
Rp2193
(dp2194
g19
I17
sg27
Nsg28
(lp2195
(NI16
tp2196
a(I01
I1
tp2197
asg32
Nsbsg33
I2
sg34
F18.0
sbs(g9
S'posting'
p2198
tp2199
g0
(g14
g2
Ntp2200
Rp2201
(dp2202
g18
F0.5
sg19
I17
sg20
g0
(g21
g22
(dp2203
I01
I1
sNI16
stp2204
Rp2205
(dp2206
g19
I17
sg27
Nsg28
(lp2207
(NI16
tp2208
a(I01
I1
tp2209
asg32
Nsbsg33
I2
sg34
F18.0
sbs(g8
S'got'
p2210
tp2211
g0
(g14
g2
Ntp2212
Rp2213
(dp2214
g18
F0.5
sg19
I19
sg20
g0
(g21
g22
(dp2215
I01
I1
sNI18
stp2216
Rp2217
(dp2218
g19
I19
sg27
Nsg28
(lp2219
(NI18
tp2220
a(I01
I1
tp2221
asg32
Nsbsg33
I2
sg34
F20.0
sbs(g9
S'makes'
p2222
tp2223
g0
(g14
g2
Ntp2224
Rp2225
(dp2226
g18
F0.5
sg19
I17
sg20
g0
(g21
g22
(dp2227
I01
I1
sNI16
stp2228
Rp2229
(dp2230
g19
I17
sg27
Nsg28
(lp2231
(NI16
tp2232
a(I01
I1
tp2233
asg32
Nsbsg33
I2
sg34
F18.0
sbs(g9
S'your'
p2234
tp2235
g0
(g14
g2
Ntp2236
Rp2237
(dp2238
g18
F0.5
sg19
I17
sg20
g0
(g21
g22
(dp2239
I01
I1
sNI16
stp2240
Rp2241
(dp2242
g19
I17
sg27
Nsg28
(lp2243
(NI16
tp2244
a(I01
I1
tp2245
asg32
Nsbsg33
I2
sg34
F18.0
sbs(g9
S'texas'
p2246
tp2247
g0
(g14
g2
Ntp2248
Rp2249
(dp2250
g18
F0.5
sg19
I17
sg20
g0
(g21
g22
(dp2251
I01
I1
sNI16
stp2252
Rp2253
(dp2254
g19
I17
sg27
Nsg28
(lp2255
(NI16
tp2256
a(I01
I1
tp2257
asg32
Nsbsg33
I2
sg34
F18.0
sbs(g8
g1561
tp2258
g0
(g14
g2
Ntp2259
Rp2260
(dp2261
g18
F0.5
sg19
I19
sg20
g0
(g21
g22
(dp2262
NI19
stp2263
Rp2264
(dp2265
g19
I19
sg27
Nsg28
(lp2266
(NI19
tp2267
asg32
Nsbsg33
I2
sg34
F20.0
sbs(g8
S'looking'
p2268
tp2269
g0
(g14
g2
Ntp2270
Rp2271
(dp2272
g18
F0.5
sg19
I19
sg20
g0
(g21
g22
(dp2273
NI19
stp2274
Rp2275
(dp2276
g19
I19
sg27
Nsg28
(lp2277
(NI19
tp2278
asg32
Nsbsg33
I2
sg34
F20.0
sbs(g9
g777
tp2279
g0
(g14
g2
Ntp2280
Rp2281
(dp2282
g18
F0.5
sg19
I17
sg20
g0
(g21
g22
(dp2283
I01
I2
sNI15
stp2284
Rp2285
(dp2286
g19
I17
sg27
Nsg28
(lp2287
(NI15
tp2288
a(I01
I2
tp2289
asg32
Nsbsg33
I2
sg34
F18.0
sbs(g8
g743
tp2290
g0
(g14
g2
Ntp2291
Rp2292
(dp2293
g18
F0.5
sg19
I19
sg20
g0
(g21
g22
(dp2294
NI19
stp2295
Rp2296
(dp2297
g19
I19
sg27
Nsg28
(lp2298
(NI19
tp2299
asg32
Nsbsg33
I2
sg34
F20.0
sbs(g8
g2198
tp2300
g0
(g14
g2
Ntp2301
Rp2302
(dp2303
g18
F0.5
sg19
I19
sg20
g0
(g21
g22
(dp2304
NI19
stp2305
Rp2306
(dp2307
g19
I19
sg27
Nsg28
(lp2308
(NI19
tp2309
asg32
Nsbsg33
I2
sg34
F20.0
sbs(g8
S'them'
p2310
tp2311
g0
(g14
g2
Ntp2312
Rp2313
(dp2314
g18
F0.5
sg19
I19
sg20
g0
(g21
g22
(dp2315
NI19
stp2316
Rp2317
(dp2318
g19
I19
sg27
Nsg28
(lp2319
(NI19
tp2320
asg32
Nsbsg33
I2
sg34
F20.0
sbs(g8
S'cheese'
p2321
tp2322
g0
(g14
g2
Ntp2323
Rp2324
(dp2325
g18
F0.5
sg19
I19
sg20
g0
(g21
g22
(dp2326
I01
I1
sNI18
stp2327
Rp2328
(dp2329
g19
I19
sg27
Nsg28
(lp2330
(NI18
tp2331
a(I01
I1
tp2332
asg32
Nsbsg33
I2
sg34
F20.0
sbs(g8
S'a'
p2333
tp2334
g0
(g14
g2
Ntp2335
Rp2336
(dp2337
g18
F0.5
sg19
I19
sg20
g0
(g21
g22
(dp2338
I01
I4
sNI15
stp2339
Rp2340
(dp2341
g19
I19
sg27
Nsg28
(lp2342
(NI15
tp2343
a(I01
I4
tp2344
asg32
Nsbsg33
I2
sg34
F20.0
sbs(g8
S'design'
p2345
tp2346
g0
(g14
g2
Ntp2347
Rp2348
(dp2349
g18
F0.5
sg19
I19
sg20
g0
(g21
g22
(dp2350
I01
I1
sNI18
stp2351
Rp2352
(dp2353
g19
I19
sg27
Nsg28
(lp2354
(NI18
tp2355
a(I01
I1
tp2356
asg32
Nsbsg33
I2
sg34
F20.0
sbs(g9
S'good'
p2357
tp2358
g0
(g14
g2
Ntp2359
Rp2360
(dp2361
g18
F0.5
sg19
I17
sg20
g0
(g21
g22
(dp2362
I01
I1
sNI16
stp2363
Rp2364
(dp2365
g19
I17
sg27
Nsg28
(lp2366
(NI16
tp2367
a(I01
I1
tp2368
asg32
Nsbsg33
I2
sg34
F18.0
sbs(g9
S'join'
p2369
tp2370
g0
(g14
g2
Ntp2371
Rp2372
(dp2373
g18
F0.5
sg19
I17
sg20
g0
(g21
g22
(dp2374
I01
I1
sNI16
stp2375
Rp2376
(dp2377
g19
I17
sg27
Nsg28
(lp2378
(NI16
tp2379
a(I01
I1
tp2380
asg32
Nsbsg33
I2
sg34
F18.0
sbs(g9
S'the'
p2381
tp2382
g0
(g14
g2
Ntp2383
Rp2384
(dp2385
g18
F0.5
sg19
I17
sg20
g0
(g21
g22
(dp2386
I01
I9
sNI8
stp2387
Rp2388
(dp2389
g19
I17
sg27
Nsg28
(lp2390
(I01
I9
tp2391
a(NI8
tp2392
asg32
Nsbsg33
I2
sg34
F18.0
sbs(g8
S'movie'
p2393
tp2394
g0
(g14
g2
Ntp2395
Rp2396
(dp2397
g18
F0.5
sg19
I19
sg20
g0
(g21
g22
(dp2398
NI19
stp2399
Rp2400
(dp2401
g19
I19
sg27
Nsg28
(lp2402
(NI19
tp2403
asg32
Nsbsg33
I2
sg34
F20.0
sbs(g9
g129
tp2404
g0
(g14
g2
Ntp2405
Rp2406
(dp2407
g18
F0.5
sg19
I17
sg20
g0
(g21
g22
(dp2408
NI17
stp2409
Rp2410
(dp2411
g19
I17
sg27
Nsg28
(lp2412
(NI17
tp2413
asg32
Nsbsg33
I2
sg34
F18.0
sbs(g9
S"'"
p2414
tp2415
g0
(g14
g2
Ntp2416
Rp2417
(dp2418
g18
F0.5
sg19
I17
sg20
g0
(g21
g22
(dp2419
I01
I1
sNI16
stp2420
Rp2421
(dp2422
g19
I17
sg27
Nsg28
(lp2423
(NI16
tp2424
a(I01
I1
tp2425
asg32
Nsbsg33
I2
sg34
F18.0
sbs(g9
S'was'
p2426
tp2427
g0
(g14
g2
Ntp2428
Rp2429
(dp2430
g18
F0.5
sg19
I17
sg20
g0
(g21
g22
(dp2431
I01
I1
sNI16
stp2432
Rp2433
(dp2434
g19
I17
sg27
Nsg28
(lp2435
(NI16
tp2436
a(I01
I1
tp2437
asg32
Nsbsg33
I2
sg34
F18.0
sbs(g9
S'say'
p2438
tp2439
g0
(g14
g2
Ntp2440
Rp2441
(dp2442
g18
F0.5
sg19
I17
sg20
g0
(g21
g22
(dp2443
NI17
stp2444
Rp2445
(dp2446
g19
I17
sg27
Nsg28
(lp2447
(NI17
tp2448
asg32
Nsbsg33
I2
sg34
F18.0
sbs(g9
S'\\'
p2449
tp2450
g0
(g14
g2
Ntp2451
Rp2452
(dp2453
g18
F0.5
sg19
I17
sg20
g0
(g21
g22
(dp2454
NI17
stp2455
Rp2456
(dp2457
g19
I17
sg27
Nsg28
(lp2458
(NI17
tp2459
asg32
Nsbsg33
I2
sg34
F18.0
sbs(g9
g881
tp2460
g0
(g14
g2
Ntp2461
Rp2462
(dp2463
g18
F0.5
sg19
I17
sg20
g0
(g21
g22
(dp2464
NI17
stp2465
Rp2466
(dp2467
g19
I17
sg27
Nsg28
(lp2468
(NI17
tp2469
asg32
Nsbsg33
I2
sg34
F18.0
sbs(g9
S'posts'
p2470
tp2471
g0
(g14
g2
Ntp2472
Rp2473
(dp2474
g18
F0.5
sg19
I17
sg20
g0
(g21
g22
(dp2475
I01
I1
sNI16
stp2476
Rp2477
(dp2478
g19
I17
sg27
Nsg28
(lp2479
(NI16
tp2480
a(I01
I1
tp2481
asg32
Nsbsg33
I2
sg34
F18.0
sbs(g9
S'<CAPS>'
p2482
tp2483
g0
(g14
g2
Ntp2484
Rp2485
(dp2486
g18
F0.5
sg19
I17
sg20
g0
(g21
g22
(dp2487
I01
I5
sNI12
stp2488
Rp2489
(dp2490
g19
I17
sg27
Nsg28
(lp2491
(NI12
tp2492
a(I01
I5
tp2493
asg32
Nsbsg33
I2
sg34
F18.0
sbs(g8
S'more'
p2494
tp2495
g0
(g14
g2
Ntp2496
Rp2497
(dp2498
g18
F0.5
sg19
I19
sg20
g0
(g21
g22
(dp2499
I01
I1
sNI18
stp2500
Rp2501
(dp2502
g19
I19
sg27
Nsg28
(lp2503
(NI18
tp2504
a(I01
I1
tp2505
asg32
Nsbsg33
I2
sg34
F20.0
sbs(g8
S'gods'
p2506
tp2507
g0
(g14
g2
Ntp2508
Rp2509
(dp2510
g18
F0.5
sg19
I19
sg20
g0
(g21
g22
(dp2511
I01
I3
sNI16
stp2512
Rp2513
(dp2514
g19
I19
sg27
Nsg28
(lp2515
(NI16
tp2516
a(I01
I3
tp2517
asg32
Nsbsg33
I2
sg34
F20.0
sbs(g8
g258
tp2518
g0
(g14
g2
Ntp2519
Rp2520
(dp2521
g18
F0.5
sg19
I19
sg20
g0
(g21
g22
(dp2522
NI19
stp2523
Rp2524
(dp2525
g19
I19
sg27
Nsg28
(lp2526
(NI19
tp2527
asg32
Nsbsg33
I2
sg34
F20.0
sbs(g9
g557
tp2528
g0
(g14
g2
Ntp2529
Rp2530
(dp2531
g18
F0.5
sg19
I17
sg20
g0
(g21
g22
(dp2532
I01
I1
sNI16
stp2533
Rp2534
(dp2535
g19
I17
sg27
Nsg28
(lp2536
(NI16
tp2537
a(I01
I1
tp2538
asg32
Nsbsg33
I2
sg34
F18.0
sbs(g8
g1514
tp2539
g0
(g14
g2
Ntp2540
Rp2541
(dp2542
g18
F0.5
sg19
I19
sg20
g0
(g21
g22
(dp2543
NI19
stp2544
Rp2545
(dp2546
g19
I19
sg27
Nsg28
(lp2547
(NI19
tp2548
asg32
Nsbsg33
I2
sg34
F20.0
sbs(g9
S'>'
p2549
tp2550
g0
(g14
g2
Ntp2551
Rp2552
(dp2553
g18
F0.5
sg19
I17
sg20
g0
(g21
g22
(dp2554
I01
I4
sNI13
stp2555
Rp2556
(dp2557
g19
I17
sg27
Nsg28
(lp2558
(NI13
tp2559
a(I01
I4
tp2560
asg32
Nsbsg33
I2
sg34
F18.0
sbs(g8
S'surprise'
p2561
tp2562
g0
(g14
g2
Ntp2563
Rp2564
(dp2565
g18
F0.5
sg19
I19
sg20
g0
(g21
g22
(dp2566
NI19
stp2567
Rp2568
(dp2569
g19
I19
sg27
Nsg28
(lp2570
(NI19
tp2571
asg32
Nsbsg33
I2
sg34
F20.0
sbs(g9
g1913
tp2572
g0
(g14
g2
Ntp2573
Rp2574
(dp2575
g18
F0.5
sg19
I17
sg20
g0
(g21
g22
(dp2576
I01
I1
sNI16
stp2577
Rp2578
(dp2579
g19
I17
sg27
Nsg28
(lp2580
(NI16
tp2581
a(I01
I1
tp2582
asg32
Nsbsg33
I2
sg34
F18.0
sbs(g8
S'24'
p2583
tp2584
g0
(g14
g2
Ntp2585
Rp2586
(dp2587
g18
F0.5
sg19
I19
sg20
g0
(g21
g22
(dp2588
NI19
stp2589
Rp2590
(dp2591
g19
I19
sg27
Nsg28
(lp2592
(NI19
tp2593
asg32
Nsbsg33
I2
sg34
F20.0
sbs(g8
g987
tp2594
g0
(g14
g2
Ntp2595
Rp2596
(dp2597
g18
F0.5
sg19
I19
sg20
g0
(g21
g22
(dp2598
I01
I1
sNI18
stp2599
Rp2600
(dp2601
g19
I19
sg27
Nsg28
(lp2602
(NI18
tp2603
a(I01
I1
tp2604
asg32
Nsbsg33
I2
sg34
F20.0
sbs(g8
g201
tp2605
g0
(g14
g2
Ntp2606
Rp2607
(dp2608
g18
F0.5
sg19
I19
sg20
g0
(g21
g22
(dp2609
I01
I1
sNI18
stp2610
Rp2611
(dp2612
g19
I19
sg27
Nsg28
(lp2613
(NI18
tp2614
a(I01
I1
tp2615
asg32
Nsbsg33
I2
sg34
F20.0
sbs(g8
S'another'
p2616
tp2617
g0
(g14
g2
Ntp2618
Rp2619
(dp2620
g18
F0.5
sg19
I19
sg20
g0
(g21
g22
(dp2621
I01
I1
sNI18
stp2622
Rp2623
(dp2624
g19
I19
sg27
Nsg28
(lp2625
(NI18
tp2626
a(I01
I1
tp2627
asg32
Nsbsg33
I2
sg34
F20.0
sbs(g8
S'friends.'
p2628
tp2629
g0
(g14
g2
Ntp2630
Rp2631
(dp2632
g18
F0.5
sg19
I19
sg20
g0
(g21
g22
(dp2633
I01
I1
sNI18
stp2634
Rp2635
(dp2636
g19
I19
sg27
Nsg28
(lp2637
(NI18
tp2638
a(I01
I1
tp2639
asg32
Nsbsg33
I2
sg34
F20.0
sbs(g9
S'shaking'
p2640
tp2641
g0
(g14
g2
Ntp2642
Rp2643
(dp2644
g18
F0.5
sg19
I17
sg20
g0
(g21
g22
(dp2645
I01
I1
sNI16
stp2646
Rp2647
(dp2648
g19
I17
sg27
Nsg28
(lp2649
(NI16
tp2650
a(I01
I1
tp2651
asg32
Nsbsg33
I2
sg34
F18.0
sbs(g9
S'without'
p2652
tp2653
g0
(g14
g2
Ntp2654
Rp2655
(dp2656
g18
F0.5
sg19
I17
sg20
g0
(g21
g22
(dp2657
I01
I1
sNI16
stp2658
Rp2659
(dp2660
g19
I17
sg27
Nsg28
(lp2661
(NI16
tp2662
a(I01
I1
tp2663
asg32
Nsbsg33
I2
sg34
F18.0
sbs(g8
g1617
tp2664
g0
(g14
g2
Ntp2665
Rp2666
(dp2667
g18
F0.5
sg19
I19
sg20
g0
(g21
g22
(dp2668
I01
I1
sNI18
stp2669
Rp2670
(dp2671
g19
I19
sg27
Nsg28
(lp2672
(NI18
tp2673
a(I01
I1
tp2674
asg32
Nsbsg33
I2
sg34
F20.0
sbs(g8
S'messages'
p2675
tp2676
g0
(g14
g2
Ntp2677
Rp2678
(dp2679
g18
F0.5
sg19
I19
sg20
g0
(g21
g22
(dp2680
I01
I1
sNI18
stp2681
Rp2682
(dp2683
g19
I19
sg27
Nsg28
(lp2684
(NI18
tp2685
a(I01
I1
tp2686
asg32
Nsbsg33
I2
sg34
F20.0
sbs(g9
S'they'
p2687
tp2688
g0
(g14
g2
Ntp2689
Rp2690
(dp2691
g18
F0.5
sg19
I17
sg20
g0
(g21
g22
(dp2692
I01
I2
sNI15
stp2693
Rp2694
(dp2695
g19
I17
sg27
Nsg28
(lp2696
(NI15
tp2697
a(I01
I2
tp2698
asg32
Nsbsg33
I2
sg34
F18.0
sbs(g8
g2062
tp2699
g0
(g14
g2
Ntp2700
Rp2701
(dp2702
g18
F0.5
sg19
I19
sg20
g0
(g21
g22
(dp2703
I01
I1
sNI18
stp2704
Rp2705
(dp2706
g19
I19
sg27
Nsg28
(lp2707
(NI18
tp2708
a(I01
I1
tp2709
asg32
Nsbsg33
I2
sg34
F20.0
sbs(g9
S'yesterday'
p2710
tp2711
g0
(g14
g2
Ntp2712
Rp2713
(dp2714
g18
F0.5
sg19
I17
sg20
g0
(g21
g22
(dp2715
I01
I1
sNI16
stp2716
Rp2717
(dp2718
g19
I17
sg27
Nsg28
(lp2719
(NI16
tp2720
a(I01
I1
tp2721
asg32
Nsbsg33
I2
sg34
F18.0
sbs(g9
g2561
tp2722
g0
(g14
g2
Ntp2723
Rp2724
(dp2725
g18
F0.5
sg19
I17
sg20
g0
(g21
g22
(dp2726
I01
I1
sNI16
stp2727
Rp2728
(dp2729
g19
I17
sg27
Nsg28
(lp2730
(NI16
tp2731
a(I01
I1
tp2732
asg32
Nsbsg33
I2
sg34
F18.0
sbs(g9
g1127
tp2733
g0
(g14
g2
Ntp2734
Rp2735
(dp2736
g18
F0.5
sg19
I17
sg20
g0
(g21
g22
(dp2737
NI17
stp2738
Rp2739
(dp2740
g19
I17
sg27
Nsg28
(lp2741
(NI17
tp2742
asg32
Nsbsg33
I2
sg34
F18.0
sbs(g9
S'author'
p2743
tp2744
g0
(g14
g2
Ntp2745
Rp2746
(dp2747
g18
F0.5
sg19
I17
sg20
g0
(g21
g22
(dp2748
I01
I1
sNI16
stp2749
Rp2750
(dp2751
g19
I17
sg27
Nsg28
(lp2752
(NI16
tp2753
a(I01
I1
tp2754
asg32
Nsbsg33
I2
sg34
F18.0
sbs(g9
g545
tp2755
g0
(g14
g2
Ntp2756
Rp2757
(dp2758
g18
F0.5
sg19
I17
sg20
g0
(g21
g22
(dp2759
NI17
stp2760
Rp2761
(dp2762
g19
I17
sg27
Nsg28
(lp2763
(NI17
tp2764
asg32
Nsbsg33
I2
sg34
F18.0
sbs(g9
g1970
tp2765
g0
(g14
g2
Ntp2766
Rp2767
(dp2768
g18
F0.5
sg19
I17
sg20
g0
(g21
g22
(dp2769
I01
I1
sNI16
stp2770
Rp2771
(dp2772
g19
I17
sg27
Nsg28
(lp2773
(NI16
tp2774
a(I01
I1
tp2775
asg32
Nsbsg33
I2
sg34
F18.0
sbs(g9
S'info'
p2776
tp2777
g0
(g14
g2
Ntp2778
Rp2779
(dp2780
g18
F0.5
sg19
I17
sg20
g0
(g21
g22
(dp2781
NI17
stp2782
Rp2783
(dp2784
g19
I17
sg27
Nsg28
(lp2785
(NI17
tp2786
asg32
Nsbsg33
I2
sg34
F18.0
sbs(g8
g2776
tp2787
g0
(g14
g2
Ntp2788
Rp2789
(dp2790
g18
F0.5
sg19
I19
sg20
g0
(g21
g22
(dp2791
I01
I1
sNI18
stp2792
Rp2793
(dp2794
g19
I19
sg27
Nsg28
(lp2795
(NI18
tp2796
a(I01
I1
tp2797
asg32
Nsbsg33
I2
sg34
F20.0
sbs(g9
S'what'
p2798
tp2799
g0
(g14
g2
Ntp2800
Rp2801
(dp2802
g18
F0.5
sg19
I17
sg20
g0
(g21
g22
(dp2803
NI17
stp2804
Rp2805
(dp2806
g19
I17
sg27
Nsg28
(lp2807
(NI17
tp2808
asg32
Nsbsg33
I2
sg34
F18.0
sbs(g8
S'words'
p2809
tp2810
g0
(g14
g2
Ntp2811
Rp2812
(dp2813
g18
F0.5
sg19
I19
sg20
g0
(g21
g22
(dp2814
I01
I1
sNI18
stp2815
Rp2816
(dp2817
g19
I19
sg27
Nsg28
(lp2818
(NI18
tp2819
a(I01
I1
tp2820
asg32
Nsbsg33
I2
sg34
F20.0
sbs(g8
g2222
tp2821
g0
(g14
g2
Ntp2822
Rp2823
(dp2824
g18
F0.5
sg19
I19
sg20
g0
(g21
g22
(dp2825
NI19
stp2826
Rp2827
(dp2828
g19
I19
sg27
Nsg28
(lp2829
(NI19
tp2830
asg32
Nsbsg33
I2
sg34
F20.0
sbs(g8
S'tonight'
p2831
tp2832
g0
(g14
g2
Ntp2833
Rp2834
(dp2835
g18
F0.5
sg19
I19
sg20
g0
(g21
g22
(dp2836
I01
I1
sNI18
stp2837
Rp2838
(dp2839
g19
I19
sg27
Nsg28
(lp2840
(NI18
tp2841
a(I01
I1
tp2842
asg32
Nsbsg33
I2
sg34
F20.0
sbs(g9
S'that'
p2843
tp2844
g0
(g14
g2
Ntp2845
Rp2846
(dp2847
g18
F0.5
sg19
I17
sg20
g0
(g21
g22
(dp2848
I01
I4
sNI13
stp2849
Rp2850
(dp2851
g19
I17
sg27
Nsg28
(lp2852
(NI13
tp2853
a(I01
I4
tp2854
asg32
Nsbsg33
I2
sg34
F18.0
sbs(g9
S'facebook.'
p2855
tp2856
g0
(g14
g2
Ntp2857
Rp2858
(dp2859
g18
F0.5
sg19
I17
sg20
g0
(g21
g22
(dp2860
I01
I1
sNI16
stp2861
Rp2862
(dp2863
g19
I17
sg27
Nsg28
(lp2864
(NI16
tp2865
a(I01
I1
tp2866
asg32
Nsbsg33
I2
sg34
F18.0
sbs(g9
S'south'
p2867
tp2868
g0
(g14
g2
Ntp2869
Rp2870
(dp2871
g18
F0.5
sg19
I17
sg20
g0
(g21
g22
(dp2872
I01
I1
sNI16
stp2873
Rp2874
(dp2875
g19
I17
sg27
Nsg28
(lp2876
(NI16
tp2877
a(I01
I1
tp2878
asg32
Nsbsg33
I2
sg34
F18.0
sbs(g8
S'question'
p2879
tp2880
g0
(g14
g2
Ntp2881
Rp2882
(dp2883
g18
F0.5
sg19
I19
sg20
g0
(g21
g22
(dp2884
I01
I1
sNI18
stp2885
Rp2886
(dp2887
g19
I19
sg27
Nsg28
(lp2888
(NI18
tp2889
a(I01
I1
tp2890
asg32
Nsbsg33
I2
sg34
F20.0
sbs(g9
S'city'
p2891
tp2892
g0
(g14
g2
Ntp2893
Rp2894
(dp2895
g18
F0.5
sg19
I17
sg20
g0
(g21
g22
(dp2896
NI17
stp2897
Rp2898
(dp2899
g19
I17
sg27
Nsg28
(lp2900
(NI17
tp2901
asg32
Nsbsg33
I2
sg34
F18.0
sbs(g9
S'well'
p2902
tp2903
g0
(g14
g2
Ntp2904
Rp2905
(dp2906
g18
F0.5
sg19
I17
sg20
g0
(g21
g22
(dp2907
NI17
stp2908
Rp2909
(dp2910
g19
I17
sg27
Nsg28
(lp2911
(NI17
tp2912
asg32
Nsbsg33
I2
sg34
F18.0
sbs(g8
g2891
tp2913
g0
(g14
g2
Ntp2914
Rp2915
(dp2916
g18
F0.5
sg19
I19
sg20
g0
(g21
g22
(dp2917
I01
I1
sNI18
stp2918
Rp2919
(dp2920
g19
I19
sg27
Nsg28
(lp2921
(NI18
tp2922
a(I01
I1
tp2923
asg32
Nsbsg33
I2
sg34
F20.0
sbs(g8
S'so'
p2924
tp2925
g0
(g14
g2
Ntp2926
Rp2927
(dp2928
g18
F0.5
sg19
I19
sg20
g0
(g21
g22
(dp2929
I01
I1
sNI18
stp2930
Rp2931
(dp2932
g19
I19
sg27
Nsg28
(lp2933
(NI18
tp2934
a(I01
I1
tp2935
asg32
Nsbsg33
I2
sg34
F20.0
sbs(g8
S'lovin'
p2936
tp2937
g0
(g14
g2
Ntp2938
Rp2939
(dp2940
g18
F0.5
sg19
I19
sg20
g0
(g21
g22
(dp2941
NI19
stp2942
Rp2943
(dp2944
g19
I19
sg27
Nsg28
(lp2945
(NI19
tp2946
asg32
Nsbsg33
I2
sg34
F20.0
sbs(g9
g1171
tp2947
g0
(g14
g2
Ntp2948
Rp2949
(dp2950
g18
F0.5
sg19
I17
sg20
g0
(g21
g22
(dp2951
I01
I1
sNI16
stp2952
Rp2953
(dp2954
g19
I17
sg27
Nsg28
(lp2955
(NI16
tp2956
a(I01
I1
tp2957
asg32
Nsbsg33
I2
sg34
F18.0
sbs(g9
S':>)'
p2958
tp2959
g0
(g14
g2
Ntp2960
Rp2961
(dp2962
g18
F0.5
sg19
I17
sg20
g0
(g21
g22
(dp2963
NI17
stp2964
Rp2965
(dp2966
g19
I17
sg27
Nsg28
(lp2967
(NI17
tp2968
asg32
Nsbsg33
I2
sg34
F18.0
sbs(g8
S'will'
p2969
tp2970
g0
(g14
g2
Ntp2971
Rp2972
(dp2973
g18
F0.5
sg19
I19
sg20
g0
(g21
g22
(dp2974
NI19
stp2975
Rp2976
(dp2977
g19
I19
sg27
Nsg28
(lp2978
(NI19
tp2979
asg32
Nsbsg33
I2
sg34
F20.0
sbs(g8
g2039
tp2980
g0
(g14
g2
Ntp2981
Rp2982
(dp2983
g18
F0.5
sg19
I19
sg20
g0
(g21
g22
(dp2984
NI19
stp2985
Rp2986
(dp2987
g19
I19
sg27
Nsg28
(lp2988
(NI19
tp2989
asg32
Nsbsg33
I2
sg34
F20.0
sbs(g8
g2151
tp2990
g0
(g14
g2
Ntp2991
Rp2992
(dp2993
g18
F0.5
sg19
I19
sg20
g0
(g21
g22
(dp2994
NI19
stp2995
Rp2996
(dp2997
g19
I19
sg27
Nsg28
(lp2998
(NI19
tp2999
asg32
Nsbsg33
I2
sg34
F20.0
sbs(g8
S'month?!'
p3000
tp3001
g0
(g14
g2
Ntp3002
Rp3003
(dp3004
g18
F0.5
sg19
I19
sg20
g0
(g21
g22
(dp3005
I01
I1
sNI18
stp3006
Rp3007
(dp3008
g19
I19
sg27
Nsg28
(lp3009
(NI18
tp3010
a(I01
I1
tp3011
asg32
Nsbsg33
I2
sg34
F20.0
sbs(g8
S'some'
p3012
tp3013
g0
(g14
g2
Ntp3014
Rp3015
(dp3016
g18
F0.5
sg19
I19
sg20
g0
(g21
g22
(dp3017
NI19
stp3018
Rp3019
(dp3020
g19
I19
sg27
Nsg28
(lp3021
(NI19
tp3022
asg32
Nsbsg33
I2
sg34
F20.0
sbs(g8
S'on'
p3023
tp3024
g0
(g14
g2
Ntp3025
Rp3026
(dp3027
g18
F0.5
sg19
I19
sg20
g0
(g21
g22
(dp3028
I01
I3
sNI16
stp3029
Rp3030
(dp3031
g19
I19
sg27
Nsg28
(lp3032
(NI16
tp3033
a(I01
I3
tp3034
asg32
Nsbsg33
I2
sg34
F20.0
sbs(g8
S'hungry'
p3035
tp3036
g0
(g14
g2
Ntp3037
Rp3038
(dp3039
g18
F0.5
sg19
I19
sg20
g0
(g21
g22
(dp3040
NI19
stp3041
Rp3042
(dp3043
g19
I19
sg27
Nsg28
(lp3044
(NI19
tp3045
asg32
Nsbsg33
I2
sg34
F20.0
sbs(g8
S'!'
p3046
tp3047
g0
(g14
g2
Ntp3048
Rp3049
(dp3050
g18
F0.5
sg19
I19
sg20
g0
(g21
g22
(dp3051
I01
I1
sNI18
stp3052
Rp3053
(dp3054
g19
I19
sg27
Nsg28
(lp3055
(NI18
tp3056
a(I01
I1
tp3057
asg32
Nsbsg33
I2
sg34
F20.0
sbs(g8
g858
tp3058
g0
(g14
g2
Ntp3059
Rp3060
(dp3061
g18
F0.5
sg19
I19
sg20
g0
(g21
g22
(dp3062
I01
I1
sNI18
stp3063
Rp3064
(dp3065
g19
I19
sg27
Nsg28
(lp3066
(NI18
tp3067
a(I01
I1
tp3068
asg32
Nsbsg33
I2
sg34
F20.0
sbs(g9
S'from'
p3069
tp3070
g0
(g14
g2
Ntp3071
Rp3072
(dp3073
g18
F0.5
sg19
I17
sg20
g0
(g21
g22
(dp3074
I01
I3
sNI14
stp3075
Rp3076
(dp3077
g19
I17
sg27
Nsg28
(lp3078
(NI14
tp3079
a(I01
I3
tp3080
asg32
Nsbsg33
I2
sg34
F18.0
sbs(g9
g1959
tp3081
g0
(g14
g2
Ntp3082
Rp3083
(dp3084
g18
F0.5
sg19
I17
sg20
g0
(g21
g22
(dp3085
I01
I1
sNI16
stp3086
Rp3087
(dp3088
g19
I17
sg27
Nsg28
(lp3089
(NI16
tp3090
a(I01
I1
tp3091
asg32
Nsbsg33
I2
sg34
F18.0
sbs(g9
S'give'
p3092
tp3093
g0
(g14
g2
Ntp3094
Rp3095
(dp3096
g18
F0.5
sg19
I17
sg20
g0
(g21
g22
(dp3097
NI17
stp3098
Rp3099
(dp3100
g19
I17
sg27
Nsg28
(lp3101
(NI17
tp3102
asg32
Nsbsg33
I2
sg34
F18.0
sbs(g8
S'propfirst'
p3103
tp3104
g0
(g14
g2
Ntp3105
Rp3106
(dp3107
g18
F0.5
sg19
I19
sg20
g0
(g21
g22
(dp3108
I01
I1
sNI18
stp3109
Rp3110
(dp3111
g19
I19
sg27
Nsg28
(lp3112
(NI18
tp3113
a(I01
I1
tp3114
asg32
Nsbsg33
I2
sg34
F20.0
sbs(g9
S'its'
p3115
tp3116
g0
(g14
g2
Ntp3117
Rp3118
(dp3119
g18
F0.5
sg19
I17
sg20
g0
(g21
g22
(dp3120
NI17
stp3121
Rp3122
(dp3123
g19
I17
sg27
Nsg28
(lp3124
(NI17
tp3125
asg32
Nsbsg33
I2
sg34
F18.0
sbs(g8
S'endless'
p3126
tp3127
g0
(g14
g2
Ntp3128
Rp3129
(dp3130
g18
F0.5
sg19
I19
sg20
g0
(g21
g22
(dp3131
I01
I1
sNI18
stp3132
Rp3133
(dp3134
g19
I19
sg27
Nsg28
(lp3135
(NI18
tp3136
a(I01
I1
tp3137
asg32
Nsbsg33
I2
sg34
F20.0
sbs(g9
S'today'
p3138
tp3139
g0
(g14
g2
Ntp3140
Rp3141
(dp3142
g18
F0.5
sg19
I17
sg20
g0
(g21
g22
(dp3143
NI17
stp3144
Rp3145
(dp3146
g19
I17
sg27
Nsg28
(lp3147
(NI17
tp3148
asg32
Nsbsg33
I2
sg34
F18.0
sbs(g9
g3126
tp3149
g0
(g14
g2
Ntp3150
Rp3151
(dp3152
g18
F0.5
sg19
I17
sg20
g0
(g21
g22
(dp3153
NI17
stp3154
Rp3155
(dp3156
g19
I17
sg27
Nsg28
(lp3157
(NI17
tp3158
asg32
Nsbsg33
I2
sg34
F18.0
sbs(g8
g2470
tp3159
g0
(g14
g2
Ntp3160
Rp3161
(dp3162
g18
F0.5
sg19
I19
sg20
g0
(g21
g22
(dp3163
NI19
stp3164
Rp3165
(dp3166
g19
I19
sg27
Nsg28
(lp3167
(NI19
tp3168
asg32
Nsbsg33
I2
sg34
F20.0
sbs(g8
g731
tp3169
g0
(g14
g2
Ntp3170
Rp3171
(dp3172
g18
F0.5
sg19
I19
sg20
g0
(g21
g22
(dp3173
NI19
stp3174
Rp3175
(dp3176
g19
I19
sg27
Nsg28
(lp3177
(NI19
tp3178
asg32
Nsbsg33
I2
sg34
F20.0
sbs(g8
S'passing'
p3179
tp3180
g0
(g14
g2
Ntp3181
Rp3182
(dp3183
g18
F0.5
sg19
I19
sg20
g0
(g21
g22
(dp3184
NI19
stp3185
Rp3186
(dp3187
g19
I19
sg27
Nsg28
(lp3188
(NI19
tp3189
asg32
Nsbsg33
I2
sg34
F20.0
sbs(g9
g1454
tp3190
g0
(g14
g2
Ntp3191
Rp3192
(dp3193
g18
F0.5
sg19
I17
sg20
g0
(g21
g22
(dp3194
NI17
stp3195
Rp3196
(dp3197
g19
I17
sg27
Nsg28
(lp3198
(NI17
tp3199
asg32
Nsbsg33
I2
sg34
F18.0
sbs(g8
S'40'
p3200
tp3201
g0
(g14
g2
Ntp3202
Rp3203
(dp3204
g18
F0.5
sg19
I19
sg20
g0
(g21
g22
(dp3205
NI19
stp3206
Rp3207
(dp3208
g19
I19
sg27
Nsg28
(lp3209
(NI19
tp3210
asg32
Nsbsg33
I2
sg34
F20.0
sbs(g9
S'run'
p3211
tp3212
g0
(g14
g2
Ntp3213
Rp3214
(dp3215
g18
F0.5
sg19
I17
sg20
g0
(g21
g22
(dp3216
NI17
stp3217
Rp3218
(dp3219
g19
I17
sg27
Nsg28
(lp3220
(NI17
tp3221
asg32
Nsbsg33
I2
sg34
F18.0
sbs(g9
S'attending'
p3222
tp3223
g0
(g14
g2
Ntp3224
Rp3225
(dp3226
g18
F0.5
sg19
I17
sg20
g0
(g21
g22
(dp3227
I01
I2
sNI15
stp3228
Rp3229
(dp3230
g19
I17
sg27
Nsg28
(lp3231
(NI15
tp3232
a(I01
I2
tp3233
asg32
Nsbsg33
I2
sg34
F18.0
sbs(g9
g788
tp3234
g0
(g14
g2
Ntp3235
Rp3236
(dp3237
g18
F0.5
sg19
I17
sg20
g0
(g21
g22
(dp3238
I01
I1
sNI16
stp3239
Rp3240
(dp3241
g19
I17
sg27
Nsg28
(lp3242
(NI16
tp3243
a(I01
I1
tp3244
asg32
Nsbsg33
I2
sg34
F18.0
sbs(g8
g2369
tp3245
g0
(g14
g2
Ntp3246
Rp3247
(dp3248
g18
F0.5
sg19
I19
sg20
g0
(g21
g22
(dp3249
NI19
stp3250
Rp3251
(dp3252
g19
I19
sg27
Nsg28
(lp3253
(NI19
tp3254
asg32
Nsbsg33
I2
sg34
F20.0
sbs(g9
S'about'
p3255
tp3256
g0
(g14
g2
Ntp3257
Rp3258
(dp3259
g18
F0.5
sg19
I17
sg20
g0
(g21
g22
(dp3260
NI17
stp3261
Rp3262
(dp3263
g19
I17
sg27
Nsg28
(lp3264
(NI17
tp3265
asg32
Nsbsg33
I2
sg34
F18.0
sbs(g8
g695
tp3266
g0
(g14
g2
Ntp3267
Rp3268
(dp3269
g18
F0.5
sg19
I19
sg20
g0
(g21
g22
(dp3270
NI19
stp3271
Rp3272
(dp3273
g19
I19
sg27
Nsg28
(lp3274
(NI19
tp3275
asg32
Nsbsg33
I2
sg34
F20.0
sbs(g8
g3092
tp3276
g0
(g14
g2
Ntp3277
Rp3278
(dp3279
g18
F0.5
sg19
I19
sg20
g0
(g21
g22
(dp3280
I01
I1
sNI18
stp3281
Rp3282
(dp3283
g19
I19
sg27
Nsg28
(lp3284
(NI18
tp3285
a(I01
I1
tp3286
asg32
Nsbsg33
I2
sg34
F20.0
sbs(g9
g1585
tp3287
g0
(g14
g2
Ntp3288
Rp3289
(dp3290
g18
F0.5
sg19
I17
sg20
g0
(g21
g22
(dp3291
I01
I1
sNI16
stp3292
Rp3293
(dp3294
g19
I17
sg27
Nsg28
(lp3295
(NI16
tp3296
a(I01
I1
tp3297
asg32
Nsbsg33
I2
sg34
F18.0
sbs(g8
S'see!'
p3298
tp3299
g0
(g14
g2
Ntp3300
Rp3301
(dp3302
g18
F0.5
sg19
I19
sg20
g0
(g21
g22
(dp3303
NI19
stp3304
Rp3305
(dp3306
g19
I19
sg27
Nsg28
(lp3307
(NI19
tp3308
asg32
Nsbsg33
I2
sg34
F20.0
sbs(g9
S'miss'
p3309
tp3310
g0
(g14
g2
Ntp3311
Rp3312
(dp3313
g18
F0.5
sg19
I17
sg20
g0
(g21
g22
(dp3314
I01
I1
sNI16
stp3315
Rp3316
(dp3317
g19
I17
sg27
Nsg28
(lp3318
(NI16
tp3319
a(I01
I1
tp3320
asg32
Nsbsg33
I2
sg34
F18.0
sbs(g8
S'than'
p3321
tp3322
g0
(g14
g2
Ntp3323
Rp3324
(dp3325
g18
F0.5
sg19
I19
sg20
g0
(g21
g22
(dp3326
NI19
stp3327
Rp3328
(dp3329
g19
I19
sg27
Nsg28
(lp3330
(NI19
tp3331
asg32
Nsbsg33
I2
sg34
F20.0
sbs(g9
g637
tp3332
g0
(g14
g2
Ntp3333
Rp3334
(dp3335
g18
F0.5
sg19
I17
sg20
g0
(g21
g22
(dp3336
NI17
stp3337
Rp3338
(dp3339
g19
I17
sg27
Nsg28
(lp3340
(NI17
tp3341
asg32
Nsbsg33
I2
sg34
F18.0
sbs(g9
g1698
tp3342
g0
(g14
g2
Ntp3343
Rp3344
(dp3345
g18
F0.5
sg19
I17
sg20
g0
(g21
g22
(dp3346
NI17
stp3347
Rp3348
(dp3349
g19
I17
sg27
Nsg28
(lp3350
(NI17
tp3351
asg32
Nsbsg33
I2
sg34
F18.0
sbs(g8
S'christian'
p3352
tp3353
g0
(g14
g2
Ntp3354
Rp3355
(dp3356
g18
F0.5
sg19
I19
sg20
g0
(g21
g22
(dp3357
NI19
stp3358
Rp3359
(dp3360
g19
I19
sg27
Nsg28
(lp3361
(NI19
tp3362
asg32
Nsbsg33
I2
sg34
F20.0
sbs(g9
g2506
tp3363
g0
(g14
g2
Ntp3364
Rp3365
(dp3366
g18
F0.5
sg19
I17
sg20
g0
(g21
g22
(dp3367
NI17
stp3368
Rp3369
(dp3370
g19
I17
sg27
Nsg28
(lp3371
(NI17
tp3372
asg32
Nsbsg33
I2
sg34
F18.0
sbs(g9
S'out'
p3373
tp3374
g0
(g14
g2
Ntp3375
Rp3376
(dp3377
g18
F0.5
sg19
I17
sg20
g0
(g21
g22
(dp3378
I01
I2
sNI15
stp3379
Rp3380
(dp3381
g19
I17
sg27
Nsg28
(lp3382
(NI15
tp3383
a(I01
I2
tp3384
asg32
Nsbsg33
I2
sg34
F18.0
sbs(g8
S'just'
p3385
tp3386
g0
(g14
g2
Ntp3387
Rp3388
(dp3389
g18
F0.5
sg19
I19
sg20
g0
(g21
g22
(dp3390
I01
I1
sNI18
stp3391
Rp3392
(dp3393
g19
I19
sg27
Nsg28
(lp3394
(NI18
tp3395
a(I01
I1
tp3396
asg32
Nsbsg33
I2
sg34
F20.0
sbs(g9
g317
tp3397
g0
(g14
g2
Ntp3398
Rp3399
(dp3400
g18
F0.5
sg19
I17
sg20
g0
(g21
g22
(dp3401
I01
I5
sNI12
stp3402
Rp3403
(dp3404
g19
I17
sg27
Nsg28
(lp3405
(NI12
tp3406
a(I01
I5
tp3407
asg32
Nsbsg33
I2
sg34
F18.0
sbs(g8
S'sandwich'
p3408
tp3409
g0
(g14
g2
Ntp3410
Rp3411
(dp3412
g18
F0.5
sg19
I19
sg20
g0
(g21
g22
(dp3413
I01
I1
sNI18
stp3414
Rp3415
(dp3416
g19
I19
sg27
Nsg28
(lp3417
(NI18
tp3418
a(I01
I1
tp3419
asg32
Nsbsg33
I2
sg34
F20.0
sbs(g9
S'site'
p3420
tp3421
g0
(g14
g2
Ntp3422
Rp3423
(dp3424
g18
F0.5
sg19
I17
sg20
g0
(g21
g22
(dp3425
I01
I1
sNI16
stp3426
Rp3427
(dp3428
g19
I17
sg27
Nsg28
(lp3429
(NI16
tp3430
a(I01
I1
tp3431
asg32
Nsbsg33
I2
sg34
F18.0
sbs(g9
g1639
tp3432
g0
(g14
g2
Ntp3433
Rp3434
(dp3435
g18
F0.5
sg19
I17
sg20
g0
(g21
g22
(dp3436
NI17
stp3437
Rp3438
(dp3439
g19
I17
sg27
Nsg28
(lp3440
(NI17
tp3441
asg32
Nsbsg33
I2
sg34
F18.0
sbs(g8
S'2010'
p3442
tp3443
g0
(g14
g2
Ntp3444
Rp3445
(dp3446
g18
F0.5
sg19
I19
sg20
g0
(g21
g22
(dp3447
I01
I1
sNI18
stp3448
Rp3449
(dp3450
g19
I19
sg27
Nsg28
(lp3451
(NI18
tp3452
a(I01
I1
tp3453
asg32
Nsbsg33
I2
sg34
F20.0
sbs(g9
S'or'
p3454
tp3455
g0
(g14
g2
Ntp3456
Rp3457
(dp3458
g18
F0.5
sg19
I17
sg20
g0
(g21
g22
(dp3459
I01
I1
sNI16
stp3460
Rp3461
(dp3462
g19
I17
sg27
Nsg28
(lp3463
(NI16
tp3464
a(I01
I1
tp3465
asg32
Nsbsg33
I2
sg34
F18.0
sbs(g8
S'propmale'
p3466
tp3467
g0
(g14
g2
Ntp3468
Rp3469
(dp3470
g18
F0.5
sg19
I19
sg20
g0
(g21
g22
(dp3471
I01
I3
sNI16
stp3472
Rp3473
(dp3474
g19
I19
sg27
Nsg28
(lp3475
(NI16
tp3476
a(I01
I3
tp3477
asg32
Nsbsg33
I2
sg34
F20.0
sbs(g9
g1823
tp3478
g0
(g14
g2
Ntp3479
Rp3480
(dp3481
g18
F0.5
sg19
I17
sg20
g0
(g21
g22
(dp3482
I01
I1
sNI16
stp3483
Rp3484
(dp3485
g19
I17
sg27
Nsg28
(lp3486
(NI16
tp3487
a(I01
I1
tp3488
asg32
Nsbsg33
I2
sg34
F18.0
sbs(g9
S'then'
p3489
tp3490
g0
(g14
g2
Ntp3491
Rp3492
(dp3493
g18
F0.5
sg19
I17
sg20
g0
(g21
g22
(dp3494
I01
I1
sNI16
stp3495
Rp3496
(dp3497
g19
I17
sg27
Nsg28
(lp3498
(NI16
tp3499
a(I01
I1
tp3500
asg32
Nsbsg33
I2
sg34
F18.0
sbs(g9
g2831
tp3501
g0
(g14
g2
Ntp3502
Rp3503
(dp3504
g18
F0.5
sg19
I17
sg20
g0
(g21
g22
(dp3505
NI17
stp3506
Rp3507
(dp3508
g19
I17
sg27
Nsg28
(lp3509
(NI17
tp3510
asg32
Nsbsg33
I2
sg34
F18.0
sbs(g9
S'my'
p3511
tp3512
g0
(g14
g2
Ntp3513
Rp3514
(dp3515
g18
F0.5
sg19
I17
sg20
g0
(g21
g22
(dp3516
NI17
stp3517
Rp3518
(dp3519
g19
I17
sg27
Nsg28
(lp3520
(NI17
tp3521
asg32
Nsbsg33
I2
sg34
F18.0
sbs(g9
g1767
tp3522
g0
(g14
g2
Ntp3523
Rp3524
(dp3525
g18
F0.5
sg19
I17
sg20
g0
(g21
g22
(dp3526
NI17
stp3527
Rp3528
(dp3529
g19
I17
sg27
Nsg28
(lp3530
(NI17
tp3531
asg32
Nsbsg33
I2
sg34
F18.0
sbs(g8
g1115
tp3532
g0
(g14
g2
Ntp3533
Rp3534
(dp3535
g18
F0.5
sg19
I19
sg20
g0
(g21
g22
(dp3536
NI19
stp3537
Rp3538
(dp3539
g19
I19
sg27
Nsg28
(lp3540
(NI19
tp3541
asg32
Nsbsg33
I2
sg34
F20.0
sbs(g8
g2743
tp3542
g0
(g14
g2
Ntp3543
Rp3544
(dp3545
g18
F0.5
sg19
I19
sg20
g0
(g21
g22
(dp3546
NI19
stp3547
Rp3548
(dp3549
g19
I19
sg27
Nsg28
(lp3550
(NI19
tp3551
asg32
Nsbsg33
I2
sg34
F20.0
sbs(g8
S'went'
p3552
tp3553
g0
(g14
g2
Ntp3554
Rp3555
(dp3556
g18
F0.5
sg19
I19
sg20
g0
(g21
g22
(dp3557
I01
I1
sNI18
stp3558
Rp3559
(dp3560
g19
I19
sg27
Nsg28
(lp3561
(NI18
tp3562
a(I01
I1
tp3563
asg32
Nsbsg33
I2
sg34
F20.0
sbs(g8
S'punch'
p3564
tp3565
g0
(g14
g2
Ntp3566
Rp3567
(dp3568
g18
F0.5
sg19
I19
sg20
g0
(g21
g22
(dp3569
I01
I1
sNI18
stp3570
Rp3571
(dp3572
g19
I19
sg27
Nsg28
(lp3573
(NI18
tp3574
a(I01
I1
tp3575
asg32
Nsbsg33
I2
sg34
F20.0
sbs(g9
g2628
tp3576
g0
(g14
g2
Ntp3577
Rp3578
(dp3579
g18
F0.5
sg19
I17
sg20
g0
(g21
g22
(dp3580
NI17
stp3581
Rp3582
(dp3583
g19
I17
sg27
Nsg28
(lp3584
(NI17
tp3585
asg32
Nsbsg33
I2
sg34
F18.0
sbs(g9
g3564
tp3586
g0
(g14
g2
Ntp3587
Rp3588
(dp3589
g18
F0.5
sg19
I17
sg20
g0
(g21
g22
(dp3590
NI17
stp3591
Rp3592
(dp3593
g19
I17
sg27
Nsg28
(lp3594
(NI17
tp3595
asg32
Nsbsg33
I2
sg34
F18.0
sbs(g9
g224
tp3596
g0
(g14
g2
Ntp3597
Rp3598
(dp3599
g18
F0.5
sg19
I17
sg20
g0
(g21
g22
(dp3600
I01
I1
sNI16
stp3601
Rp3602
(dp3603
g19
I17
sg27
Nsg28
(lp3604
(NI16
tp3605
a(I01
I1
tp3606
asg32
Nsbsg33
I2
sg34
F18.0
sbs(g8
g247
tp3607
g0
(g14
g2
Ntp3608
Rp3609
(dp3610
g18
F0.5
sg19
I19
sg20
g0
(g21
g22
(dp3611
I01
I1
sNI18
stp3612
Rp3613
(dp3614
g19
I19
sg27
Nsg28
(lp3615
(NI18
tp3616
a(I01
I1
tp3617
asg32
Nsbsg33
I2
sg34
F20.0
sbs(g8
S'last'
p3618
tp3619
g0
(g14
g2
Ntp3620
Rp3621
(dp3622
g18
F0.5
sg19
I19
sg20
g0
(g21
g22
(dp3623
I01
I1
sNI18
stp3624
Rp3625
(dp3626
g19
I19
sg27
Nsg28
(lp3627
(NI18
tp3628
a(I01
I1
tp3629
asg32
Nsbsg33
I2
sg34
F20.0
sbs(g8
S'do'
p3630
tp3631
g0
(g14
g2
Ntp3632
Rp3633
(dp3634
g18
F0.5
sg19
I19
sg20
g0
(g21
g22
(dp3635
I01
I1
sNI18
stp3636
Rp3637
(dp3638
g19
I19
sg27
Nsg28
(lp3639
(NI18
tp3640
a(I01
I1
tp3641
asg32
Nsbsg33
I2
sg34
F20.0
sbs(g9
g1868
tp3642
g0
(g14
g2
Ntp3643
Rp3644
(dp3645
g18
F0.5
sg19
I17
sg20
g0
(g21
g22
(dp3646
NI17
stp3647
Rp3648
(dp3649
g19
I17
sg27
Nsg28
(lp3650
(NI17
tp3651
asg32
Nsbsg33
I2
sg34
F18.0
sbs(g8
S'has'
p3652
tp3653
g0
(g14
g2
Ntp3654
Rp3655
(dp3656
g18
F0.5
sg19
I19
sg20
g0
(g21
g22
(dp3657
NI19
stp3658
Rp3659
(dp3660
g19
I19
sg27
Nsg28
(lp3661
(NI19
tp3662
asg32
Nsbsg33
I2
sg34
F20.0
sbs(g8
S'through'
p3663
tp3664
g0
(g14
g2
Ntp3665
Rp3666
(dp3667
g18
F0.5
sg19
I19
sg20
g0
(g21
g22
(dp3668
NI19
stp3669
Rp3670
(dp3671
g19
I19
sg27
Nsg28
(lp3672
(NI19
tp3673
asg32
Nsbsg33
I2
sg34
F20.0
sbs(g8
S'>,'
p3674
tp3675
g0
(g14
g2
Ntp3676
Rp3677
(dp3678
g18
F0.5
sg19
I19
sg20
g0
(g21
g22
(dp3679
I01
I1
sNI18
stp3680
Rp3681
(dp3682
g19
I19
sg27
Nsg28
(lp3683
(NI18
tp3684
a(I01
I1
tp3685
asg32
Nsbsg33
I2
sg34
F20.0
sbs(g9
g3552
tp3686
g0
(g14
g2
Ntp3687
Rp3688
(dp3689
g18
F0.5
sg19
I17
sg20
g0
(g21
g22
(dp3690
NI17
stp3691
Rp3692
(dp3693
g19
I17
sg27
Nsg28
(lp3694
(NI17
tp3695
asg32
Nsbsg33
I2
sg34
F18.0
sbs(g9
g1160
tp3696
g0
(g14
g2
Ntp3697
Rp3698
(dp3699
g18
F0.5
sg19
I17
sg20
g0
(g21
g22
(dp3700
I01
I1
sNI16
stp3701
Rp3702
(dp3703
g19
I17
sg27
Nsg28
(lp3704
(NI16
tp3705
a(I01
I1
tp3706
asg32
Nsbsg33
I2
sg34
F18.0
sbs(g8
S'by'
p3707
tp3708
g0
(g14
g2
Ntp3709
Rp3710
(dp3711
g18
F0.5
sg19
I19
sg20
g0
(g21
g22
(dp3712
I01
I1
sNI18
stp3713
Rp3714
(dp3715
g19
I19
sg27
Nsg28
(lp3716
(NI18
tp3717
a(I01
I1
tp3718
asg32
Nsbsg33
I2
sg34
F20.0
sbs(g9
S'government'
p3719
tp3720
g0
(g14
g2
Ntp3721
Rp3722
(dp3723
g18
F0.5
sg19
I17
sg20
g0
(g21
g22
(dp3724
NI17
stp3725
Rp3726
(dp3727
g19
I17
sg27
Nsg28
(lp3728
(NI17
tp3729
asg32
Nsbsg33
I2
sg34
F18.0
sbs(g9
S'<x>'
p3730
tp3731
g0
(g14
g2
Ntp3732
Rp3733
(dp3734
g18
F0.5
sg19
I17
sg20
g0
(g21
g22
(dp3735
I01
I15
sNI2
stp3736
Rp3737
(dp3738
g19
I17
sg27
Nsg28
(lp3739
(I01
I15
tp3740
a(NI2
tp3741
asg32
Nsbsg33
I2
sg34
F18.0
sbs(g8
S'reason'
p3742
tp3743
g0
(g14
g2
Ntp3744
Rp3745
(dp3746
g18
F0.5
sg19
I19
sg20
g0
(g21
g22
(dp3747
I01
I1
sNI18
stp3748
Rp3749
(dp3750
g19
I19
sg27
Nsg28
(lp3751
(NI18
tp3752
a(I01
I1
tp3753
asg32
Nsbsg33
I2
sg34
F20.0
sbs(g9
S'can'
p3754
tp3755
g0
(g14
g2
Ntp3756
Rp3757
(dp3758
g18
F0.5
sg19
I17
sg20
g0
(g21
g22
(dp3759
NI17
stp3760
Rp3761
(dp3762
g19
I17
sg27
Nsg28
(lp3763
(NI17
tp3764
asg32
Nsbsg33
I2
sg34
F18.0
sbs(g9
g1330
tp3765
g0
(g14
g2
Ntp3766
Rp3767
(dp3768
g18
F0.5
sg19
I17
sg20
g0
(g21
g22
(dp3769
NI17
stp3770
Rp3771
(dp3772
g19
I17
sg27
Nsg28
(lp3773
(NI17
tp3774
asg32
Nsbsg33
I2
sg34
F18.0
sbs(g8
S'end'
p3775
tp3776
g0
(g14
g2
Ntp3777
Rp3778
(dp3779
g18
F0.5
sg19
I19
sg20
g0
(g21
g22
(dp3780
I01
I2
sNI17
stp3781
Rp3782
(dp3783
g19
I19
sg27
Nsg28
(lp3784
(NI17
tp3785
a(I01
I2
tp3786
asg32
Nsbsg33
I2
sg34
F20.0
sbs(g8
S')'
p3787
tp3788
g0
(g14
g2
Ntp3789
Rp3790
(dp3791
g18
F0.5
sg19
I19
sg20
g0
(g21
g22
(dp3792
I01
I1
sNI18
stp3793
Rp3794
(dp3795
g19
I19
sg27
Nsg28
(lp3796
(NI18
tp3797
a(I01
I1
tp3798
asg32
Nsbsg33
I2
sg34
F20.0
sbs(g8
S'with'
p3799
tp3800
g0
(g14
g2
Ntp3801
Rp3802
(dp3803
g18
F0.5
sg19
I19
sg20
g0
(g21
g22
(dp3804
I01
I1
sNI18
stp3805
Rp3806
(dp3807
g19
I19
sg27
Nsg28
(lp3808
(NI18
tp3809
a(I01
I1
tp3810
asg32
Nsbsg33
I2
sg34
F20.0
sbs(g9
g3652
tp3811
g0
(g14
g2
Ntp3812
Rp3813
(dp3814
g18
F0.5
sg19
I17
sg20
g0
(g21
g22
(dp3815
I01
I1
sNI16
stp3816
Rp3817
(dp3818
g19
I17
sg27
Nsg28
(lp3819
(NI16
tp3820
a(I01
I1
tp3821
asg32
Nsbsg33
I2
sg34
F18.0
sbs(g9
g1526
tp3822
g0
(g14
g2
Ntp3823
Rp3824
(dp3825
g18
F0.5
sg19
I17
sg20
g0
(g21
g22
(dp3826
I01
I1
sNI16
stp3827
Rp3828
(dp3829
g19
I17
sg27
Nsg28
(lp3830
(NI16
tp3831
a(I01
I1
tp3832
asg32
Nsbsg33
I2
sg34
F18.0
sbs(g9
g1309
tp3833
g0
(g14
g2
Ntp3834
Rp3835
(dp3836
g18
F0.5
sg19
I17
sg20
g0
(g21
g22
(dp3837
I01
I1
sNI16
stp3838
Rp3839
(dp3840
g19
I17
sg27
Nsg28
(lp3841
(NI16
tp3842
a(I01
I1
tp3843
asg32
Nsbsg33
I2
sg34
F18.0
sbs(g9
S'heading'
p3844
tp3845
g0
(g14
g2
Ntp3846
Rp3847
(dp3848
g18
F0.5
sg19
I17
sg20
g0
(g21
g22
(dp3849
I01
I1
sNI16
stp3850
Rp3851
(dp3852
g19
I17
sg27
Nsg28
(lp3853
(NI16
tp3854
a(I01
I1
tp3855
asg32
Nsbsg33
I2
sg34
F18.0
sbs(g8
g3069
tp3856
g0
(g14
g2
Ntp3857
Rp3858
(dp3859
g18
F0.5
sg19
I19
sg20
g0
(g21
g22
(dp3860
NI19
stp3861
Rp3862
(dp3863
g19
I19
sg27
Nsg28
(lp3864
(NI19
tp3865
asg32
Nsbsg33
I2
sg34
F20.0
sbs(g9
g1947
tp3866
g0
(g14
g2
Ntp3867
Rp3868
(dp3869
g18
F0.5
sg19
I17
sg20
g0
(g21
g22
(dp3870
NI17
stp3871
Rp3872
(dp3873
g19
I17
sg27
Nsg28
(lp3874
(NI17
tp3875
asg32
Nsbsg33
I2
sg34
F18.0
sbs(g9
S'thanks'
p3876
tp3877
g0
(g14
g2
Ntp3878
Rp3879
(dp3880
g18
F0.5
sg19
I17
sg20
g0
(g21
g22
(dp3881
NI17
stp3882
Rp3883
(dp3884
g19
I17
sg27
Nsg28
(lp3885
(NI17
tp3886
asg32
Nsbsg33
I2
sg34
F18.0
sbs(g9
S'blue'
p3887
tp3888
g0
(g14
g2
Ntp3889
Rp3890
(dp3891
g18
F0.5
sg19
I17
sg20
g0
(g21
g22
(dp3892
I01
I1
sNI16
stp3893
Rp3894
(dp3895
g19
I17
sg27
Nsg28
(lp3896
(NI16
tp3897
a(I01
I1
tp3898
asg32
Nsbsg33
I2
sg34
F18.0
sbs(g8
S'sitting'
p3899
tp3900
g0
(g14
g2
Ntp3901
Rp3902
(dp3903
g18
F0.5
sg19
I19
sg20
g0
(g21
g22
(dp3904
NI19
stp3905
Rp3906
(dp3907
g19
I19
sg27
Nsg28
(lp3908
(NI19
tp3909
asg32
Nsbsg33
I2
sg34
F20.0
sbs(g9
g1193
tp3910
g0
(g14
g2
Ntp3911
Rp3912
(dp3913
g18
F0.5
sg19
I17
sg20
g0
(g21
g22
(dp3914
NI17
stp3915
Rp3916
(dp3917
g19
I17
sg27
Nsg28
(lp3918
(NI17
tp3919
asg32
Nsbsg33
I2
sg34
F18.0
sbs(g8
g477
tp3920
g0
(g14
g2
Ntp3921
Rp3922
(dp3923
g18
F0.5
sg19
I19
sg20
g0
(g21
g22
(dp3924
I01
I2
sNI17
stp3925
Rp3926
(dp3927
g19
I19
sg27
Nsg28
(lp3928
(NI17
tp3929
a(I01
I2
tp3930
asg32
Nsbsg33
I2
sg34
F20.0
sbs(g9
S'ever'
p3931
tp3932
g0
(g14
g2
Ntp3933
Rp3934
(dp3935
g18
F0.5
sg19
I17
sg20
g0
(g21
g22
(dp3936
I01
I1
sNI16
stp3937
Rp3938
(dp3939
g19
I17
sg27
Nsg28
(lp3940
(NI16
tp3941
a(I01
I1
tp3942
asg32
Nsbsg33
I2
sg34
F18.0
sbs(g9
S'lost'
p3943
tp3944
g0
(g14
g2
Ntp3945
Rp3946
(dp3947
g18
F0.5
sg19
I17
sg20
g0
(g21
g22
(dp3948
NI17
stp3949
Rp3950
(dp3951
g19
I17
sg27
Nsg28
(lp3952
(NI17
tp3953
asg32
Nsbsg33
I2
sg34
F18.0
sbs(g9
S'to'
p3954
tp3955
g0
(g14
g2
Ntp3956
Rp3957
(dp3958
g18
F0.5
sg19
I17
sg20
g0
(g21
g22
(dp3959
NI17
stp3960
Rp3961
(dp3962
g19
I17
sg27
Nsg28
(lp3963
(NI17
tp3964
asg32
Nsbsg33
I2
sg34
F18.0
sbs(g9
g2345
tp3965
g0
(g14
g2
Ntp3966
Rp3967
(dp3968
g18
F0.5
sg19
I17
sg20
g0
(g21
g22
(dp3969
NI17
stp3970
Rp3971
(dp3972
g19
I17
sg27
Nsg28
(lp3973
(NI17
tp3974
asg32
Nsbsg33
I2
sg34
F18.0
sbs(g8
S'here'
p3975
tp3976
g0
(g14
g2
Ntp3977
Rp3978
(dp3979
g18
F0.5
sg19
I19
sg20
g0
(g21
g22
(dp3980
NI19
stp3981
Rp3982
(dp3983
g19
I19
sg27
Nsg28
(lp3984
(NI19
tp3985
asg32
Nsbsg33
I2
sg34
F20.0
sbs(g9
g2879
tp3986
g0
(g14
g2
Ntp3987
Rp3988
(dp3989
g18
F0.5
sg19
I17
sg20
g0
(g21
g22
(dp3990
NI17
stp3991
Rp3992
(dp3993
g19
I17
sg27
Nsg28
(lp3994
(NI17
tp3995
asg32
Nsbsg33
I2
sg34
F18.0
sbs(g8
S'up'
p3996
tp3997
g0
(g14
g2
Ntp3998
Rp3999
(dp4000
g18
F0.5
sg19
I19
sg20
g0
(g21
g22
(dp4001
NI19
stp4002
Rp4003
(dp4004
g19
I19
sg27
Nsg28
(lp4005
(NI19
tp4006
asg32
Nsbsg33
I2
sg34
F20.0
sbs(g8
S'coffee'
p4007
tp4008
g0
(g14
g2
Ntp4009
Rp4010
(dp4011
g18
F0.5
sg19
I19
sg20
g0
(g21
g22
(dp4012
NI19
stp4013
Rp4014
(dp4015
g19
I19
sg27
Nsg28
(lp4016
(NI19
tp4017
asg32
Nsbsg33
I2
sg34
F20.0
sbs(g9
g2268
tp4018
g0
(g14
g2
Ntp4019
Rp4020
(dp4021
g18
F0.5
sg19
I17
sg20
g0
(g21
g22
(dp4022
I01
I1
sNI16
stp4023
Rp4024
(dp4025
g19
I17
sg27
Nsg28
(lp4026
(NI16
tp4027
a(I01
I1
tp4028
asg32
Nsbsg33
I2
sg34
F18.0
sbs(g8
S'a?'
p4029
tp4030
g0
(g14
g2
Ntp4031
Rp4032
(dp4033
g18
F0.5
sg19
I19
sg20
g0
(g21
g22
(dp4034
I01
I1
sNI18
stp4035
Rp4036
(dp4037
g19
I19
sg27
Nsg28
(lp4038
(NI18
tp4039
a(I01
I1
tp4040
asg32
Nsbsg33
I2
sg34
F20.0
sbs(g9
S'\\"'
p4041
tp4042
g0
(g14
g2
Ntp4043
Rp4044
(dp4045
g18
F0.5
sg19
I17
sg20
g0
(g21
g22
(dp4046
NI17
stp4047
Rp4048
(dp4049
g19
I17
sg27
Nsg28
(lp4050
(NI17
tp4051
asg32
Nsbsg33
I2
sg34
F18.0
sbs(g9
S'ago'
p4052
tp4053
g0
(g14
g2
Ntp4054
Rp4055
(dp4056
g18
F0.5
sg19
I17
sg20
g0
(g21
g22
(dp4057
I01
I1
sNI16
stp4058
Rp4059
(dp4060
g19
I17
sg27
Nsg28
(lp4061
(NI16
tp4062
a(I01
I1
tp4063
asg32
Nsbsg33
I2
sg34
F18.0
sbs(g9
g604
tp4064
g0
(g14
g2
Ntp4065
Rp4066
(dp4067
g18
F0.5
sg19
I17
sg20
g0
(g21
g22
(dp4068
NI17
stp4069
Rp4070
(dp4071
g19
I17
sg27
Nsg28
(lp4072
(NI17
tp4073
asg32
Nsbsg33
I2
sg34
F18.0
sbs(g8
g4052
tp4074
g0
(g14
g2
Ntp4075
Rp4076
(dp4077
g18
F0.5
sg19
I19
sg20
g0
(g21
g22
(dp4078
NI19
stp4079
Rp4080
(dp4081
g19
I19
sg27
Nsg28
(lp4082
(NI19
tp4083
asg32
Nsbsg33
I2
sg34
F20.0
sbs(g9
g1262
tp4084
g0
(g14
g2
Ntp4085
Rp4086
(dp4087
g18
F0.5
sg19
I17
sg20
g0
(g21
g22
(dp4088
NI17
stp4089
Rp4090
(dp4091
g19
I17
sg27
Nsg28
(lp4092
(NI17
tp4093
asg32
Nsbsg33
I2
sg34
F18.0
sbs(g9
g3035
tp4094
g0
(g14
g2
Ntp4095
Rp4096
(dp4097
g18
F0.5
sg19
I17
sg20
g0
(g21
g22
(dp4098
I01
I1
sNI16
stp4099
Rp4100
(dp4101
g19
I17
sg27
Nsg28
(lp4102
(NI16
tp4103
a(I01
I1
tp4104
asg32
Nsbsg33
I2
sg34
F18.0
sbs(g9
S'his'
p4105
tp4106
g0
(g14
g2
Ntp4107
Rp4108
(dp4109
g18
F0.5
sg19
I17
sg20
g0
(g21
g22
(dp4110
I01
I2
sNI15
stp4111
Rp4112
(dp4113
g19
I17
sg27
Nsg28
(lp4114
(NI15
tp4115
a(I01
I2
tp4116
asg32
Nsbsg33
I2
sg34
F18.0
sbs(g8
S'today?'
p4117
tp4118
g0
(g14
g2
Ntp4119
Rp4120
(dp4121
g18
F0.5
sg19
I19
sg20
g0
(g21
g22
(dp4122
I01
I1
sNI18
stp4123
Rp4124
(dp4125
g19
I19
sg27
Nsg28
(lp4126
(NI18
tp4127
a(I01
I1
tp4128
asg32
Nsbsg33
I2
sg34
F20.0
sbs(g9
S'.'
p4129
tp4130
g0
(g14
g2
Ntp4131
Rp4132
(dp4133
g18
F0.5
sg19
I17
sg20
g0
(g21
g22
(dp4134
I01
I1
sNI16
stp4135
Rp4136
(dp4137
g19
I17
sg27
Nsg28
(lp4138
(NI16
tp4139
a(I01
I1
tp4140
asg32
Nsbsg33
I2
sg34
F18.0
sbs(g8
S'him'
p4141
tp4142
g0
(g14
g2
Ntp4143
Rp4144
(dp4145
g18
F0.5
sg19
I19
sg20
g0
(g21
g22
(dp4146
I01
I1
sNI18
stp4147
Rp4148
(dp4149
g19
I19
sg27
Nsg28
(lp4150
(NI18
tp4151
a(I01
I1
tp4152
asg32
Nsbsg33
I2
sg34
F20.0
sbs(g9
g4141
tp4153
g0
(g14
g2
Ntp4154
Rp4155
(dp4156
g18
F0.5
sg19
I17
sg20
g0
(g21
g22
(dp4157
NI17
stp4158
Rp4159
(dp4160
g19
I17
sg27
Nsg28
(lp4161
(NI17
tp4162
asg32
Nsbsg33
I2
sg34
F18.0
sbs(g9
S'propfirst'
p4163
tp4164
g0
(g14
g2
Ntp4165
Rp4166
(dp4167
g18
F0.5
sg19
I17
sg20
g0
(g21
g22
(dp4168
I01
I3
sNI14
stp4169
Rp4170
(dp4171
g19
I17
sg27
Nsg28
(lp4172
(NI14
tp4173
a(I01
I3
tp4174
asg32
Nsbsg33
I2
sg34
F18.0
sbs(g9
g927
tp4175
g0
(g14
g2
Ntp4176
Rp4177
(dp4178
g18
F0.5
sg19
I17
sg20
g0
(g21
g22
(dp4179
NI17
stp4180
Rp4181
(dp4182
g19
I17
sg27
Nsg28
(lp4183
(NI17
tp4184
asg32
Nsbsg33
I2
sg34
F18.0
sbs(g8
S'when'
p4185
tp4186
g0
(g14
g2
Ntp4187
Rp4188
(dp4189
g18
F0.5
sg19
I19
sg20
g0
(g21
g22
(dp4190
NI19
stp4191
Rp4192
(dp4193
g19
I19
sg27
Nsg28
(lp4194
(NI19
tp4195
asg32
Nsbsg33
I2
sg34
F20.0
sbs(g9
g3200
tp4196
g0
(g14
g2
Ntp4197
Rp4198
(dp4199
g18
F0.5
sg19
I17
sg20
g0
(g21
g22
(dp4200
I01
I1
sNI16
stp4201
Rp4202
(dp4203
g19
I17
sg27
Nsg28
(lp4204
(NI16
tp4205
a(I01
I1
tp4206
asg32
Nsbsg33
I2
sg34
F18.0
sbs(g9
g69
tp4207
g0
(g14
g2
Ntp4208
Rp4209
(dp4210
g18
F0.5
sg19
I17
sg20
g0
(g21
g22
(dp4211
NI17
stp4212
Rp4213
(dp4214
g19
I17
sg27
Nsg28
(lp4215
(NI17
tp4216
asg32
Nsbsg33
I2
sg34
F18.0
sbs(g9
g939
tp4217
g0
(g14
g2
Ntp4218
Rp4219
(dp4220
g18
F0.5
sg19
I17
sg20
g0
(g21
g22
(dp4221
NI17
stp4222
Rp4223
(dp4224
g19
I17
sg27
Nsg28
(lp4225
(NI17
tp4226
asg32
Nsbsg33
I2
sg34
F18.0
sbs(g9
g869
tp4227
g0
(g14
g2
Ntp4228
Rp4229
(dp4230
g18
F0.5
sg19
I17
sg20
g0
(g21
g22
(dp4231
NI17
stp4232
Rp4233
(dp4234
g19
I17
sg27
Nsg28
(lp4235
(NI17
tp4236
asg32
Nsbsg33
I2
sg34
F18.0
sbs(g9
S'rights'
p4237
tp4238
g0
(g14
g2
Ntp4239
Rp4240
(dp4241
g18
F0.5
sg19
I17
sg20
g0
(g21
g22
(dp4242
NI17
stp4243
Rp4244
(dp4245
g19
I17
sg27
Nsg28
(lp4246
(NI17
tp4247
asg32
Nsbsg33
I2
sg34
F18.0
sbs(g9
S'drawing'
p4248
tp4249
g0
(g14
g2
Ntp4250
Rp4251
(dp4252
g18
F0.5
sg19
I17
sg20
g0
(g21
g22
(dp4253
NI17
stp4254
Rp4255
(dp4256
g19
I17
sg27
Nsg28
(lp4257
(NI17
tp4258
asg32
Nsbsg33
I2
sg34
F18.0
sbs(g9
g4007
tp4259
g0
(g14
g2
Ntp4260
Rp4261
(dp4262
g18
F0.5
sg19
I17
sg20
g0
(g21
g22
(dp4263
I01
I2
sNI15
stp4264
Rp4265
(dp4266
g19
I17
sg27
Nsg28
(lp4267
(NI15
tp4268
a(I01
I2
tp4269
asg32
Nsbsg33
I2
sg34
F18.0
sbs(g8
g1756
tp4270
g0
(g14
g2
Ntp4271
Rp4272
(dp4273
g18
F0.5
sg19
I19
sg20
g0
(g21
g22
(dp4274
I01
I1
sNI18
stp4275
Rp4276
(dp4277
g19
I19
sg27
Nsg28
(lp4278
(NI18
tp4279
a(I01
I1
tp4280
asg32
Nsbsg33
I2
sg34
F20.0
sbs(g8
g1103
tp4281
g0
(g14
g2
Ntp4282
Rp4283
(dp4284
g18
F0.5
sg19
I19
sg20
g0
(g21
g22
(dp4285
NI19
stp4286
Rp4287
(dp4288
g19
I19
sg27
Nsg28
(lp4289
(NI19
tp4290
asg32
Nsbsg33
I2
sg34
F20.0
sbs(g9
g2583
tp4291
g0
(g14
g2
Ntp4292
Rp4293
(dp4294
g18
F0.5
sg19
I17
sg20
g0
(g21
g22
(dp4295
I01
I1
sNI16
stp4296
Rp4297
(dp4298
g19
I17
sg27
Nsg28
(lp4299
(NI16
tp4300
a(I01
I1
tp4301
asg32
Nsbsg33
I2
sg34
F18.0
sbs(g9
S'ask'
p4302
tp4303
g0
(g14
g2
Ntp4304
Rp4305
(dp4306
g18
F0.5
sg19
I17
sg20
g0
(g21
g22
(dp4307
NI17
stp4308
Rp4309
(dp4310
g19
I17
sg27
Nsg28
(lp4311
(NI17
tp4312
asg32
Nsbsg33
I2
sg34
F18.0
sbs(g9
g1935
tp4313
g0
(g14
g2
Ntp4314
Rp4315
(dp4316
g18
F0.5
sg19
I17
sg20
g0
(g21
g22
(dp4317
NI17
stp4318
Rp4319
(dp4320
g19
I17
sg27
Nsg28
(lp4321
(NI17
tp4322
asg32
Nsbsg33
I2
sg34
F18.0
sbs(g8
S'doing'
p4323
tp4324
g0
(g14
g2
Ntp4325
Rp4326
(dp4327
g18
F0.5
sg19
I19
sg20
g0
(g21
g22
(dp4328
NI19
stp4329
Rp4330
(dp4331
g19
I19
sg27
Nsg28
(lp4332
(NI19
tp4333
asg32
Nsbsg33
I2
sg34
F20.0
sbs(g8
g1069
tp4334
g0
(g14
g2
Ntp4335
Rp4336
(dp4337
g18
F0.5
sg19
I19
sg20
g0
(g21
g22
(dp4338
I01
I1
sNI18
stp4339
Rp4340
(dp4341
g19
I19
sg27
Nsg28
(lp4342
(NI18
tp4343
a(I01
I1
tp4344
asg32
Nsbsg33
I2
sg34
F20.0
sbs(g9
S'less'
p4345
tp4346
g0
(g14
g2
Ntp4347
Rp4348
(dp4349
g18
F0.5
sg19
I17
sg20
g0
(g21
g22
(dp4350
I01
I1
sNI16
stp4351
Rp4352
(dp4353
g19
I17
sg27
Nsg28
(lp4354
(NI16
tp4355
a(I01
I1
tp4356
asg32
Nsbsg33
I2
sg34
F18.0
sbs(g9
g1057
tp4357
g0
(g14
g2
Ntp4358
Rp4359
(dp4360
g18
F0.5
sg19
I17
sg20
g0
(g21
g22
(dp4361
NI17
stp4362
Rp4363
(dp4364
g19
I17
sg27
Nsg28
(lp4365
(NI17
tp4366
asg32
Nsbsg33
I2
sg34
F18.0
sbs(g9
g3663
tp4367
g0
(g14
g2
Ntp4368
Rp4369
(dp4370
g18
F0.5
sg19
I17
sg20
g0
(g21
g22
(dp4371
I01
I1
sNI16
stp4372
Rp4373
(dp4374
g19
I17
sg27
Nsg28
(lp4375
(NI16
tp4376
a(I01
I1
tp4377
asg32
Nsbsg33
I2
sg34
F18.0
sbs(g9
g141
tp4378
g0
(g14
g2
Ntp4379
Rp4380
(dp4381
g18
F0.5
sg19
I17
sg20
g0
(g21
g22
(dp4382
NI17
stp4383
Rp4384
(dp4385
g19
I17
sg27
Nsg28
(lp4386
(NI17
tp4387
asg32
Nsbsg33
I2
sg34
F18.0
sbs(g9
g2809
tp4388
g0
(g14
g2
Ntp4389
Rp4390
(dp4391
g18
F0.5
sg19
I17
sg20
g0
(g21
g22
(dp4392
NI17
stp4393
Rp4394
(dp4395
g19
I17
sg27
Nsg28
(lp4396
(NI17
tp4397
asg32
Nsbsg33
I2
sg34
F18.0
sbs(g9
S'on'
p4398
tp4399
g0
(g14
g2
Ntp4400
Rp4401
(dp4402
g18
F0.5
sg19
I17
sg20
g0
(g21
g22
(dp4403
I01
I3
sNI14
stp4404
Rp4405
(dp4406
g19
I17
sg27
Nsg28
(lp4407
(NI14
tp4408
a(I01
I3
tp4409
asg32
Nsbsg33
I2
sg34
F18.0
sbs(g8
S'and'
p4410
tp4411
g0
(g14
g2
Ntp4412
Rp4413
(dp4414
g18
F0.5
sg19
I19
sg20
g0
(g21
g22
(dp4415
I01
I8
sNI11
stp4416
Rp4417
(dp4418
g19
I19
sg27
Nsg28
(lp4419
(NI11
tp4420
a(I01
I8
tp4421
asg32
Nsbsg33
I2
sg34
F20.0
sbs(g8
S'one'
p4422
tp4423
g0
(g14
g2
Ntp4424
Rp4425
(dp4426
g18
F0.5
sg19
I19
sg20
g0
(g21
g22
(dp4427
NI19
stp4428
Rp4429
(dp4430
g19
I19
sg27
Nsg28
(lp4431
(NI19
tp4432
asg32
Nsbsg33
I2
sg34
F20.0
sbs(g8
S'at'
p4433
tp4434
g0
(g14
g2
Ntp4435
Rp4436
(dp4437
g18
F0.5
sg19
I19
sg20
g0
(g21
g22
(dp4438
I01
I5
sNI14
stp4439
Rp4440
(dp4441
g19
I19
sg27
Nsg28
(lp4442
(NI14
tp4443
a(I01
I5
tp4444
asg32
Nsbsg33
I2
sg34
F20.0
sbs(g8
g2438
tp4445
g0
(g14
g2
Ntp4446
Rp4447
(dp4448
g18
F0.5
sg19
I19
sg20
g0
(g21
g22
(dp4449
I01
I1
sNI18
stp4450
Rp4451
(dp4452
g19
I19
sg27
Nsg28
(lp4453
(NI18
tp4454
a(I01
I1
tp4455
asg32
Nsbsg33
I2
sg34
F20.0
sbs(g9
S'for'
p4456
tp4457
g0
(g14
g2
Ntp4458
Rp4459
(dp4460
g18
F0.5
sg19
I17
sg20
g0
(g21
g22
(dp4461
I01
I2
sNI15
stp4462
Rp4463
(dp4464
g19
I17
sg27
Nsg28
(lp4465
(NI15
tp4466
a(I01
I2
tp4467
asg32
Nsbsg33
I2
sg34
F18.0
sbs(g9
g1205
tp4468
g0
(g14
g2
Ntp4469
Rp4470
(dp4471
g18
F0.5
sg19
I17
sg20
g0
(g21
g22
(dp4472
NI17
stp4473
Rp4474
(dp4475
g19
I17
sg27
Nsg28
(lp4476
(NI17
tp4477
asg32
Nsbsg33
I2
sg34
F18.0
sbs(g9
g3408
tp4478
g0
(g14
g2
Ntp4479
Rp4480
(dp4481
g18
F0.5
sg19
I17
sg20
g0
(g21
g22
(dp4482
NI17
stp4483
Rp4484
(dp4485
g19
I17
sg27
Nsg28
(lp4486
(NI17
tp4487
asg32
Nsbsg33
I2
sg34
F18.0
sbs(g8
g2798
tp4488
g0
(g14
g2
Ntp4489
Rp4490
(dp4491
g18
F0.5
sg19
I19
sg20
g0
(g21
g22
(dp4492
I01
I1
sNI18
stp4493
Rp4494
(dp4495
g19
I19
sg27
Nsg28
(lp4496
(NI18
tp4497
a(I01
I1
tp4498
asg32
Nsbsg33
I2
sg34
F20.0
sbs(g8
g3754
tp4499
g0
(g14
g2
Ntp4500
Rp4501
(dp4502
g18
F0.5
sg19
I19
sg20
g0
(g21
g22
(dp4503
I01
I1
sNI18
stp4504
Rp4505
(dp4506
g19
I19
sg27
Nsg28
(lp4507
(NI18
tp4508
a(I01
I1
tp4509
asg32
Nsbsg33
I2
sg34
F20.0
sbs(g9
g3618
tp4510
g0
(g14
g2
Ntp4511
Rp4512
(dp4513
g18
F0.5
sg19
I17
sg20
g0
(g21
g22
(dp4514
NI17
stp4515
Rp4516
(dp4517
g19
I17
sg27
Nsg28
(lp4518
(NI17
tp4519
asg32
Nsbsg33
I2
sg34
F18.0
sbs(g9
g1722
tp4520
g0
(g14
g2
Ntp4521
Rp4522
(dp4523
g18
F0.5
sg19
I17
sg20
g0
(g21
g22
(dp4524
NI17
stp4525
Rp4526
(dp4527
g19
I17
sg27
Nsg28
(lp4528
(NI17
tp4529
asg32
Nsbsg33
I2
sg34
F18.0
sbs(g8
g2687
tp4530
g0
(g14
g2
Ntp4531
Rp4532
(dp4533
g18
F0.5
sg19
I19
sg20
g0
(g21
g22
(dp4534
NI19
stp4535
Rp4536
(dp4537
g19
I19
sg27
Nsg28
(lp4538
(NI19
tp4539
asg32
Nsbsg33
I2
sg34
F20.0
sbs(g8
g661
tp4540
g0
(g14
g2
Ntp4541
Rp4542
(dp4543
g18
F0.5
sg19
I19
sg20
g0
(g21
g22
(dp4544
I01
I1
sNI18
stp4545
Rp4546
(dp4547
g19
I19
sg27
Nsg28
(lp4548
(NI18
tp4549
a(I01
I1
tp4550
asg32
Nsbsg33
I2
sg34
F20.0
sbs(g8
S'why'
p4551
tp4552
g0
(g14
g2
Ntp4553
Rp4554
(dp4555
g18
F0.5
sg19
I19
sg20
g0
(g21
g22
(dp4556
I01
I1
sNI18
stp4557
Rp4558
(dp4559
g19
I19
sg27
Nsg28
(lp4560
(NI18
tp4561
a(I01
I1
tp4562
asg32
Nsbsg33
I2
sg34
F20.0
sbs(g8
g2855
tp4563
g0
(g14
g2
Ntp4564
Rp4565
(dp4566
g18
F0.5
sg19
I19
sg20
g0
(g21
g22
(dp4567
NI19
stp4568
Rp4569
(dp4570
g19
I19
sg27
Nsg28
(lp4571
(NI19
tp4572
asg32
Nsbsg33
I2
sg34
F20.0
sbs(g8
g1537
tp4573
g0
(g14
g2
Ntp4574
Rp4575
(dp4576
g18
F0.5
sg19
I19
sg20
g0
(g21
g22
(dp4577
NI19
stp4578
Rp4579
(dp4580
g19
I19
sg27
Nsg28
(lp4581
(NI19
tp4582
asg32
Nsbsg33
I2
sg34
F20.0
sbs(g9
S'anatomy.'
p4583
tp4584
g0
(g14
g2
Ntp4585
Rp4586
(dp4587
g18
F0.5
sg19
I17
sg20
g0
(g21
g22
(dp4588
NI17
stp4589
Rp4590
(dp4591
g19
I17
sg27
Nsg28
(lp4592
(NI17
tp4593
asg32
Nsbsg33
I2
sg34
F18.0
sbs(g8
S'good."'
p4594
tp4595
g0
(g14
g2
Ntp4596
Rp4597
(dp4598
g18
F0.5
sg19
I19
sg20
g0
(g21
g22
(dp4599
I01
I1
sNI18
stp4600
Rp4601
(dp4602
g19
I19
sg27
Nsg28
(lp4603
(NI18
tp4604
a(I01
I1
tp4605
asg32
Nsbsg33
I2
sg34
F20.0
sbs(g8
g4583
tp4606
g0
(g14
g2
Ntp4607
Rp4608
(dp4609
g18
F0.5
sg19
I19
sg20
g0
(g21
g22
(dp4610
I01
I1
sNI18
stp4611
Rp4612
(dp4613
g19
I19
sg27
Nsg28
(lp4614
(NI18
tp4615
a(I01
I1
tp4616
asg32
Nsbsg33
I2
sg34
F20.0
sbs(g9
g755
tp4617
g0
(g14
g2
Ntp4618
Rp4619
(dp4620
g18
F0.5
sg19
I17
sg20
g0
(g21
g22
(dp4621
I01
I1
sNI16
stp4622
Rp4623
(dp4624
g19
I17
sg27
Nsg28
(lp4625
(NI16
tp4626
a(I01
I1
tp4627
asg32
Nsbsg33
I2
sg34
F18.0
sbs(g9
g465
tp4628
g0
(g14
g2
Ntp4629
Rp4630
(dp4631
g18
F0.5
sg19
I17
sg20
g0
(g21
g22
(dp4632
NI17
stp4633
Rp4634
(dp4635
g19
I17
sg27
Nsg28
(lp4636
(NI17
tp4637
asg32
Nsbsg33
I2
sg34
F18.0
sbs(g9
S'outside'
p4638
tp4639
g0
(g14
g2
Ntp4640
Rp4641
(dp4642
g18
F0.5
sg19
I17
sg20
g0
(g21
g22
(dp4643
I01
I1
sNI16
stp4644
Rp4645
(dp4646
g19
I17
sg27
Nsg28
(lp4647
(NI16
tp4648
a(I01
I1
tp4649
asg32
Nsbsg33
I2
sg34
F18.0
sbs(g8
g2186
tp4650
g0
(g14
g2
Ntp4651
Rp4652
(dp4653
g18
F0.5
sg19
I19
sg20
g0
(g21
g22
(dp4654
NI19
stp4655
Rp4656
(dp4657
g19
I19
sg27
Nsg28
(lp4658
(NI19
tp4659
asg32
Nsbsg33
I2
sg34
F20.0
sbs(g9
g1251
tp4660
g0
(g14
g2
Ntp4661
Rp4662
(dp4663
g18
F0.5
sg19
I17
sg20
g0
(g21
g22
(dp4664
I01
I1
sNI16
stp4665
Rp4666
(dp4667
g19
I17
sg27
Nsg28
(lp4668
(NI16
tp4669
a(I01
I1
tp4670
asg32
Nsbsg33
I2
sg34
F18.0
sbs(g9
S"hawai'i."
p4671
tp4672
g0
(g14
g2
Ntp4673
Rp4674
(dp4675
g18
F0.5
sg19
I17
sg20
g0
(g21
g22
(dp4676
I01
I1
sNI16
stp4677
Rp4678
(dp4679
g19
I17
sg27
Nsg28
(lp4680
(NI16
tp4681
a(I01
I1
tp4682
asg32
Nsbsg33
I2
sg34
F18.0
sbs(g8
S'free'
p4683
tp4684
g0
(g14
g2
Ntp4685
Rp4686
(dp4687
g18
F0.5
sg19
I19
sg20
g0
(g21
g22
(dp4688
I01
I1
sNI18
stp4689
Rp4690
(dp4691
g19
I19
sg27
Nsg28
(lp4692
(NI18
tp4693
a(I01
I1
tp4694
asg32
Nsbsg33
I2
sg34
F20.0
sbs(g8
g1981
tp4695
g0
(g14
g2
Ntp4696
Rp4697
(dp4698
g18
F0.5
sg19
I19
sg20
g0
(g21
g22
(dp4699
NI19
stp4700
Rp4701
(dp4702
g19
I19
sg27
Nsg28
(lp4703
(NI19
tp4704
asg32
Nsbsg33
I2
sg34
F20.0
sbs(g8
S'couple'
p4705
tp4706
g0
(g14
g2
Ntp4707
Rp4708
(dp4709
g18
F0.5
sg19
I19
sg20
g0
(g21
g22
(dp4710
NI19
stp4711
Rp4712
(dp4713
g19
I19
sg27
Nsg28
(lp4714
(NI19
tp4715
asg32
Nsbsg33
I2
sg34
F20.0
sbs(g8
S"i've"
p4716
tp4717
g0
(g14
g2
Ntp4718
Rp4719
(dp4720
g18
F0.5
sg19
I19
sg20
g0
(g21
g22
(dp4721
NI19
stp4722
Rp4723
(dp4724
g19
I19
sg27
Nsg28
(lp4725
(NI19
tp4726
asg32
Nsbsg33
I2
sg34
F20.0
sbs(g9
g893
tp4727
g0
(g14
g2
Ntp4728
Rp4729
(dp4730
g18
F0.5
sg19
I17
sg20
g0
(g21
g22
(dp4731
NI17
stp4732
Rp4733
(dp4734
g19
I17
sg27
Nsg28
(lp4735
(NI17
tp4736
asg32
Nsbsg33
I2
sg34
F18.0
sbs(g8
S'tea.'
p4737
tp4738
g0
(g14
g2
Ntp4739
Rp4740
(dp4741
g18
F0.5
sg19
I19
sg20
g0
(g21
g22
(dp4742
NI19
stp4743
Rp4744
(dp4745
g19
I19
sg27
Nsg28
(lp4746
(NI19
tp4747
asg32
Nsbsg33
I2
sg34
F20.0
sbs(g8
S'head'
p4748
tp4749
g0
(g14
g2
Ntp4750
Rp4751
(dp4752
g18
F0.5
sg19
I19
sg20
g0
(g21
g22
(dp4753
I01
I1
sNI18
stp4754
Rp4755
(dp4756
g19
I19
sg27
Nsg28
(lp4757
(NI18
tp4758
a(I01
I1
tp4759
asg32
Nsbsg33
I2
sg34
F20.0
sbs(g9
g3352
tp4760
g0
(g14
g2
Ntp4761
Rp4762
(dp4763
g18
F0.5
sg19
I17
sg20
g0
(g21
g22
(dp4764
I01
I2
sNI15
stp4765
Rp4766
(dp4767
g19
I17
sg27
Nsg28
(lp4768
(NI15
tp4769
a(I01
I2
tp4770
asg32
Nsbsg33
I2
sg34
F18.0
sbs(g8
S'having'
p4771
tp4772
g0
(g14
g2
Ntp4773
Rp4774
(dp4775
g18
F0.5
sg19
I19
sg20
g0
(g21
g22
(dp4776
NI19
stp4777
Rp4778
(dp4779
g19
I19
sg27
Nsg28
(lp4780
(NI19
tp4781
asg32
Nsbsg33
I2
sg34
F20.0
sbs(g8
g2549
tp4782
g0
(g14
g2
Ntp4783
Rp4784
(dp4785
g18
F0.5
sg19
I19
sg20
g0
(g21
g22
(dp4786
I01
I4
sNI15
stp4787
Rp4788
(dp4789
g19
I19
sg27
Nsg28
(lp4790
(NI15
tp4791
a(I01
I4
tp4792
asg32
Nsbsg33
I2
sg34
F20.0
sbs(g8
S'garden'
p4793
tp4794
g0
(g14
g2
Ntp4795
Rp4796
(dp4797
g18
F0.5
sg19
I19
sg20
g0
(g21
g22
(dp4798
I01
I1
sNI18
stp4799
Rp4800
(dp4801
g19
I19
sg27
Nsg28
(lp4802
(NI18
tp4803
a(I01
I1
tp4804
asg32
Nsbsg33
I2
sg34
F20.0
sbs(g8
g2414
tp4805
g0
(g14
g2
Ntp4806
Rp4807
(dp4808
g18
F0.5
sg19
I19
sg20
g0
(g21
g22
(dp4809
I01
I1
sNI18
stp4810
Rp4811
(dp4812
g19
I19
sg27
Nsg28
(lp4813
(NI18
tp4814
a(I01
I1
tp4815
asg32
Nsbsg33
I2
sg34
F20.0
sbs(g8
g998
tp4816
g0
(g14
g2
Ntp4817
Rp4818
(dp4819
g18
F0.5
sg19
I19
sg20
g0
(g21
g22
(dp4820
I01
I3
sNI16
stp4821
Rp4822
(dp4823
g19
I19
sg27
Nsg28
(lp4824
(NI16
tp4825
a(I01
I3
tp4826
asg32
Nsbsg33
I2
sg34
F20.0
sbs(g9
S'in'
p4827
tp4828
g0
(g14
g2
Ntp4829
Rp4830
(dp4831
g18
F0.5
sg19
I17
sg20
g0
(g21
g22
(dp4832
I01
I2
sNI15
stp4833
Rp4834
(dp4835
g19
I17
sg27
Nsg28
(lp4836
(NI15
tp4837
a(I01
I2
tp4838
asg32
Nsbsg33
I2
sg34
F18.0
sbs(g9
g3975
tp4839
g0
(g14
g2
Ntp4840
Rp4841
(dp4842
g18
F0.5
sg19
I17
sg20
g0
(g21
g22
(dp4843
I01
I1
sNI16
stp4844
Rp4845
(dp4846
g19
I17
sg27
Nsg28
(lp4847
(NI16
tp4848
a(I01
I1
tp4849
asg32
Nsbsg33
I2
sg34
F18.0
sbs(g8
S'down'
p4850
tp4851
g0
(g14
g2
Ntp4852
Rp4853
(dp4854
g18
F0.5
sg19
I19
sg20
g0
(g21
g22
(dp4855
NI19
stp4856
Rp4857
(dp4858
g19
I19
sg27
Nsg28
(lp4859
(NI19
tp4860
asg32
Nsbsg33
I2
sg34
F20.0
sbs(g9
g3321
tp4861
g0
(g14
g2
Ntp4862
Rp4863
(dp4864
g18
F0.5
sg19
I17
sg20
g0
(g21
g22
(dp4865
I01
I2
sNI15
stp4866
Rp4867
(dp4868
g19
I17
sg27
Nsg28
(lp4869
(NI15
tp4870
a(I01
I2
tp4871
asg32
Nsbsg33
I2
sg34
F18.0
sbs(g8
g3211
tp4872
g0
(g14
g2
Ntp4873
Rp4874
(dp4875
g18
F0.5
sg19
I19
sg20
g0
(g21
g22
(dp4876
I01
I1
sNI18
stp4877
Rp4878
(dp4879
g19
I19
sg27
Nsg28
(lp4880
(NI18
tp4881
a(I01
I1
tp4882
asg32
Nsbsg33
I2
sg34
F20.0
sbs(g9
S'museum'
p4883
tp4884
g0
(g14
g2
Ntp4885
Rp4886
(dp4887
g18
F0.5
sg19
I17
sg20
g0
(g21
g22
(dp4888
NI17
stp4889
Rp4890
(dp4891
g19
I17
sg27
Nsg28
(lp4892
(NI17
tp4893
asg32
Nsbsg33
I2
sg34
F18.0
sbs(g9
S'and'
p4894
tp4895
g0
(g14
g2
Ntp4896
Rp4897
(dp4898
g18
F0.5
sg19
I17
sg20
g0
(g21
g22
(dp4899
I01
I6
sNI11
stp4900
Rp4901
(dp4902
g19
I17
sg27
Nsg28
(lp4903
(NI11
tp4904
a(I01
I6
tp4905
asg32
Nsbsg33
I2
sg34
F18.0
sbs(g8
g4237
tp4906
g0
(g14
g2
Ntp4907
Rp4908
(dp4909
g18
F0.5
sg19
I19
sg20
g0
(g21
g22
(dp4910
I01
I1
sNI18
stp4911
Rp4912
(dp4913
g19
I19
sg27
Nsg28
(lp4914
(NI18
tp4915
a(I01
I1
tp4916
asg32
Nsbsg33
I2
sg34
F20.0
sbs(g8
g3420
tp4917
g0
(g14
g2
Ntp4918
Rp4919
(dp4920
g18
F0.5
sg19
I19
sg20
g0
(g21
g22
(dp4921
NI19
stp4922
Rp4923
(dp4924
g19
I19
sg27
Nsg28
(lp4925
(NI19
tp4926
asg32
Nsbsg33
I2
sg34
F20.0
sbs(g9
g1080
tp4927
g0
(g14
g2
Ntp4928
Rp4929
(dp4930
g18
F0.5
sg19
I17
sg20
g0
(g21
g22
(dp4931
NI17
stp4932
Rp4933
(dp4934
g19
I17
sg27
Nsg28
(lp4935
(NI17
tp4936
asg32
Nsbsg33
I2
sg34
F18.0
sbs(g8
S'friends'
p4937
tp4938
g0
(g14
g2
Ntp4939
Rp4940
(dp4941
g18
F0.5
sg19
I19
sg20
g0
(g21
g22
(dp4942
I01
I1
sNI18
stp4943
Rp4944
(dp4945
g19
I19
sg27
Nsg28
(lp4946
(NI18
tp4947
a(I01
I1
tp4948
asg32
Nsbsg33
I2
sg34
F20.0
sbs(g8
S'in'
p4949
tp4950
g0
(g14
g2
Ntp4951
Rp4952
(dp4953
g18
F0.5
sg19
I19
sg20
g0
(g21
g22
(dp4954
I01
I5
sNI14
stp4955
Rp4956
(dp4957
g19
I19
sg27
Nsg28
(lp4958
(NI14
tp4959
a(I01
I5
tp4960
asg32
Nsbsg33
I2
sg34
F20.0
sbs(g9
S'holy'
p4961
tp4962
g0
(g14
g2
Ntp4963
Rp4964
(dp4965
g18
F0.5
sg19
I17
sg20
g0
(g21
g22
(dp4966
NI17
stp4967
Rp4968
(dp4969
g19
I17
sg27
Nsg28
(lp4970
(NI17
tp4971
asg32
Nsbsg33
I2
sg34
F18.0
sbs(g8
g846
tp4972
g0
(g14
g2
Ntp4973
Rp4974
(dp4975
g18
F0.5
sg19
I19
sg20
g0
(g21
g22
(dp4976
NI19
stp4977
Rp4978
(dp4979
g19
I19
sg27
Nsg28
(lp4980
(NI19
tp4981
asg32
Nsbsg33
I2
sg34
F20.0
sbs(g9
g4323
tp4982
g0
(g14
g2
Ntp4983
Rp4984
(dp4985
g18
F0.5
sg19
I17
sg20
g0
(g21
g22
(dp4986
I01
I1
sNI16
stp4987
Rp4988
(dp4989
g19
I17
sg27
Nsg28
(lp4990
(NI16
tp4991
a(I01
I1
tp4992
asg32
Nsbsg33
I2
sg34
F18.0
sbs(g8
g1710
tp4993
g0
(g14
g2
Ntp4994
Rp4995
(dp4996
g18
F0.5
sg19
I19
sg20
g0
(g21
g22
(dp4997
NI19
stp4998
Rp4999
(dp5000
g19
I19
sg27
Nsg28
(lp5001
(NI19
tp5002
asg32
Nsbsg33
I2
sg34
F20.0
sbs(g9
g3630
tp5003
g0
(g14
g2
Ntp5004
Rp5005
(dp5006
g18
F0.5
sg19
I17
sg20
g0
(g21
g22
(dp5007
NI17
stp5008
Rp5009
(dp5010
g19
I17
sg27
Nsg28
(lp5011
(NI17
tp5012
asg32
Nsbsg33
I2
sg34
F18.0
sbs(g9
g822
tp5013
g0
(g14
g2
Ntp5014
Rp5015
(dp5016
g18
F0.5
sg19
I17
sg20
g0
(g21
g22
(dp5017
NI17
stp5018
Rp5019
(dp5020
g19
I17
sg27
Nsg28
(lp5021
(NI17
tp5022
asg32
Nsbsg33
I2
sg34
F18.0
sbs(g8
g4105
tp5023
g0
(g14
g2
Ntp5024
Rp5025
(dp5026
g18
F0.5
sg19
I19
sg20
g0
(g21
g22
(dp5027
NI19
stp5028
Rp5029
(dp5030
g19
I19
sg27
Nsg28
(lp5031
(NI19
tp5032
asg32
Nsbsg33
I2
sg34
F20.0
sbs(g9
S'propfemale'
p5033
tp5034
g0
(g14
g2
Ntp5035
Rp5036
(dp5037
g18
F0.5
sg19
I17
sg20
g0
(g21
g22
(dp5038
I01
I2
sNI15
stp5039
Rp5040
(dp5041
g19
I17
sg27
Nsg28
(lp5042
(NI15
tp5043
a(I01
I2
tp5044
asg32
Nsbsg33
I2
sg34
F18.0
sbs(g8
g165
tp5045
g0
(g14
g2
Ntp5046
Rp5047
(dp5048
g18
F0.5
sg19
I19
sg20
g0
(g21
g22
(dp5049
NI19
stp5050
Rp5051
(dp5052
g19
I19
sg27
Nsg28
(lp5053
(NI19
tp5054
asg32
Nsbsg33
I2
sg34
F20.0
sbs(g9
S'15th'
p5055
tp5056
g0
(g14
g2
Ntp5057
Rp5058
(dp5059
g18
F0.5
sg19
I17
sg20
g0
(g21
g22
(dp5060
NI17
stp5061
Rp5062
(dp5063
g19
I17
sg27
Nsg28
(lp5064
(NI17
tp5065
asg32
Nsbsg33
I2
sg34
F18.0
sbs(g8
g4961
tp5066
g0
(g14
g2
Ntp5067
Rp5068
(dp5069
g18
F0.5
sg19
I19
sg20
g0
(g21
g22
(dp5070
I01
I1
sNI18
stp5071
Rp5072
(dp5073
g19
I19
sg27
Nsg28
(lp5074
(NI18
tp5075
a(I01
I1
tp5076
asg32
Nsbsg33
I2
sg34
F20.0
sbs(g8
g2902
tp5077
g0
(g14
g2
Ntp5078
Rp5079
(dp5080
g18
F0.5
sg19
I19
sg20
g0
(g21
g22
(dp5081
I01
I1
sNI18
stp5082
Rp5083
(dp5084
g19
I19
sg27
Nsg28
(lp5085
(NI18
tp5086
a(I01
I1
tp5087
asg32
Nsbsg33
I2
sg34
F20.0
sbs(g9
g4185
tp5088
g0
(g14
g2
Ntp5089
Rp5090
(dp5091
g18
F0.5
sg19
I17
sg20
g0
(g21
g22
(dp5092
I01
I1
sNI16
stp5093
Rp5094
(dp5095
g19
I17
sg27
Nsg28
(lp5096
(NI16
tp5097
a(I01
I1
tp5098
asg32
Nsbsg33
I2
sg34
F18.0
sbs(g9
g1045
tp5099
g0
(g14
g2
Ntp5100
Rp5101
(dp5102
g18
F0.5
sg19
I17
sg20
g0
(g21
g22
(dp5103
NI17
stp5104
Rp5105
(dp5106
g19
I17
sg27
Nsg28
(lp5107
(NI17
tp5108
asg32
Nsbsg33
I2
sg34
F18.0
sbs(g9
S'all'
p5109
tp5110
g0
(g14
g2
Ntp5111
Rp5112
(dp5113
g18
F0.5
sg19
I17
sg20
g0
(g21
g22
(dp5114
NI17
stp5115
Rp5116
(dp5117
g19
I17
sg27
Nsg28
(lp5118
(NI17
tp5119
asg32
Nsbsg33
I2
sg34
F18.0
sbs(g8
g1812
tp5120
g0
(g14
g2
Ntp5121
Rp5122
(dp5123
g18
F0.5
sg19
I19
sg20
g0
(g21
g22
(dp5124
I01
I1
sNI18
stp5125
Rp5126
(dp5127
g19
I19
sg27
Nsg28
(lp5128
(NI18
tp5129
a(I01
I1
tp5130
asg32
Nsbsg33
I2
sg34
F20.0
sbs(g8
g410
tp5131
g0
(g14
g2
Ntp5132
Rp5133
(dp5134
g18
F0.5
sg19
I19
sg20
g0
(g21
g22
(dp5135
NI19
stp5136
Rp5137
(dp5138
g19
I19
sg27
Nsg28
(lp5139
(NI19
tp5140
asg32
Nsbsg33
I2
sg34
F20.0
sbs(g8
S'hate'
p5141
tp5142
g0
(g14
g2
Ntp5143
Rp5144
(dp5145
g18
F0.5
sg19
I19
sg20
g0
(g21
g22
(dp5146
NI19
stp5147
Rp5148
(dp5149
g19
I19
sg27
Nsg28
(lp5150
(NI19
tp5151
asg32
Nsbsg33
I2
sg34
F20.0
sbs(g9
g5141
tp5152
g0
(g14
g2
Ntp5153
Rp5154
(dp5155
g18
F0.5
sg19
I17
sg20
g0
(g21
g22
(dp5156
I01
I1
sNI16
stp5157
Rp5158
(dp5159
g19
I17
sg27
Nsg28
(lp5160
(NI16
tp5161
a(I01
I1
tp5162
asg32
Nsbsg33
I2
sg34
F18.0
sbs(g9
g1845
tp5163
g0
(g14
g2
Ntp5164
Rp5165
(dp5166
g18
F0.5
sg19
I17
sg20
g0
(g21
g22
(dp5167
I01
I1
sNI16
stp5168
Rp5169
(dp5170
g19
I17
sg27
Nsg28
(lp5171
(NI16
tp5172
a(I01
I1
tp5173
asg32
Nsbsg33
I2
sg34
F18.0
sbs(g9
g1744
tp5174
g0
(g14
g2
Ntp5175
Rp5176
(dp5177
g18
F0.5
sg19
I17
sg20
g0
(g21
g22
(dp5178
NI17
stp5179
Rp5180
(dp5181
g19
I17
sg27
Nsg28
(lp5182
(NI17
tp5183
asg32
Nsbsg33
I2
sg34
F18.0
sbs(g9
g2085
tp5184
g0
(g14
g2
Ntp5185
Rp5186
(dp5187
g18
F0.5
sg19
I17
sg20
g0
(g21
g22
(dp5188
I01
I1
sNI16
stp5189
Rp5190
(dp5191
g19
I17
sg27
Nsg28
(lp5192
(NI16
tp5193
a(I01
I1
tp5194
asg32
Nsbsg33
I2
sg34
F18.0
sbs(g8
g1924
tp5195
g0
(g14
g2
Ntp5196
Rp5197
(dp5198
g18
F0.5
sg19
I19
sg20
g0
(g21
g22
(dp5199
I01
I1
sNI18
stp5200
Rp5201
(dp5202
g19
I19
sg27
Nsg28
(lp5203
(NI18
tp5204
a(I01
I1
tp5205
asg32
Nsbsg33
I2
sg34
F20.0
sbs(g9
S'gun'
p5206
tp5207
g0
(g14
g2
Ntp5208
Rp5209
(dp5210
g18
F0.5
sg19
I17
sg20
g0
(g21
g22
(dp5211
NI17
stp5212
Rp5213
(dp5214
g19
I17
sg27
Nsg28
(lp5215
(NI17
tp5216
asg32
Nsbsg33
I2
sg34
F18.0
sbs(g8
S'amused'
p5217
tp5218
g0
(g14
g2
Ntp5219
Rp5220
(dp5221
g18
F0.5
sg19
I19
sg20
g0
(g21
g22
(dp5222
NI19
stp5223
Rp5224
(dp5225
g19
I19
sg27
Nsg28
(lp5226
(NI19
tp5227
asg32
Nsbsg33
I2
sg34
F20.0
sbs(g8
g1010
tp5228
g0
(g14
g2
Ntp5229
Rp5230
(dp5231
g18
F0.5
sg19
I19
sg20
g0
(g21
g22
(dp5232
NI19
stp5233
Rp5234
(dp5235
g19
I19
sg27
Nsg28
(lp5236
(NI19
tp5237
asg32
Nsbsg33
I2
sg34
F20.0
sbs(g9
g3000
tp5238
g0
(g14
g2
Ntp5239
Rp5240
(dp5241
g18
F0.5
sg19
I17
sg20
g0
(g21
g22
(dp5242
NI17
stp5243
Rp5244
(dp5245
g19
I17
sg27
Nsg28
(lp5246
(NI17
tp5247
asg32
Nsbsg33
I2
sg34
F18.0
sbs(g9
S'hours'
p5248
tp5249
g0
(g14
g2
Ntp5250
Rp5251
(dp5252
g18
F0.5
sg19
I17
sg20
g0
(g21
g22
(dp5253
I01
I1
sNI16
stp5254
Rp5255
(dp5256
g19
I17
sg27
Nsg28
(lp5257
(NI16
tp5258
a(I01
I1
tp5259
asg32
Nsbsg33
I2
sg34
F18.0
sbs(g9
S'beef'
p5260
tp5261
g0
(g14
g2
Ntp5262
Rp5263
(dp5264
g18
F0.5
sg19
I17
sg20
g0
(g21
g22
(dp5265
NI17
stp5266
Rp5267
(dp5268
g19
I17
sg27
Nsg28
(lp5269
(NI17
tp5270
asg32
Nsbsg33
I2
sg34
F18.0
sbs(g9
g1034
tp5271
g0
(g14
g2
Ntp5272
Rp5273
(dp5274
g18
F0.5
sg19
I17
sg20
g0
(g21
g22
(dp5275
I01
I1
sNI16
stp5276
Rp5277
(dp5278
g19
I17
sg27
Nsg28
(lp5279
(NI16
tp5280
a(I01
I1
tp5281
asg32
Nsbsg33
I2
sg34
F18.0
sbs(g9
g3899
tp5282
g0
(g14
g2
Ntp5283
Rp5284
(dp5285
g18
F0.5
sg19
I17
sg20
g0
(g21
g22
(dp5286
I01
I1
sNI16
stp5287
Rp5288
(dp5289
g19
I17
sg27
Nsg28
(lp5290
(NI16
tp5291
a(I01
I1
tp5292
asg32
Nsbsg33
I2
sg34
F18.0
sbs(g8
g3138
tp5293
g0
(g14
g2
Ntp5294
Rp5295
(dp5296
g18
F0.5
sg19
I19
sg20
g0
(g21
g22
(dp5297
I01
I1
sNI18
stp5298
Rp5299
(dp5300
g19
I19
sg27
Nsg28
(lp5301
(NI18
tp5302
a(I01
I1
tp5303
asg32
Nsbsg33
I2
sg34
F20.0
sbs(g8
g2016
tp5304
g0
(g14
g2
Ntp5305
Rp5306
(dp5307
g18
F0.5
sg19
I19
sg20
g0
(g21
g22
(dp5308
I01
I1
sNI18
stp5309
Rp5310
(dp5311
g19
I19
sg27
Nsg28
(lp5312
(NI18
tp5313
a(I01
I1
tp5314
asg32
Nsbsg33
I2
sg34
F20.0
sbs(g8
g1993
tp5315
g0
(g14
g2
Ntp5316
Rp5317
(dp5318
g18
F0.5
sg19
I19
sg20
g0
(g21
g22
(dp5319
NI19
stp5320
Rp5321
(dp5322
g19
I19
sg27
Nsg28
(lp5323
(NI19
tp5324
asg32
Nsbsg33
I2
sg34
F20.0
sbs(g8
S'had'
p5325
tp5326
g0
(g14
g2
Ntp5327
Rp5328
(dp5329
g18
F0.5
sg19
I19
sg20
g0
(g21
g22
(dp5330
I01
I1
sNI18
stp5331
Rp5332
(dp5333
g19
I19
sg27
Nsg28
(lp5334
(NI18
tp5335
a(I01
I1
tp5336
asg32
Nsbsg33
I2
sg34
F20.0
sbs(g8
g3222
tp5337
g0
(g14
g2
Ntp5338
Rp5339
(dp5340
g18
F0.5
sg19
I19
sg20
g0
(g21
g22
(dp5341
NI19
stp5342
Rp5343
(dp5344
g19
I19
sg27
Nsg28
(lp5345
(NI19
tp5346
asg32
Nsbsg33
I2
sg34
F20.0
sbs(g8
S"i'm"
p5347
tp5348
g0
(g14
g2
Ntp5349
Rp5350
(dp5351
g18
F0.5
sg19
I19
sg20
g0
(g21
g22
(dp5352
I01
I1
sNI18
stp5353
Rp5354
(dp5355
g19
I19
sg27
Nsg28
(lp5356
(NI18
tp5357
a(I01
I1
tp5358
asg32
Nsbsg33
I2
sg34
F20.0
sbs(g9
g2675
tp5359
g0
(g14
g2
Ntp5360
Rp5361
(dp5362
g18
F0.5
sg19
I17
sg20
g0
(g21
g22
(dp5363
NI17
stp5364
Rp5365
(dp5366
g19
I17
sg27
Nsg28
(lp5367
(NI17
tp5368
asg32
Nsbsg33
I2
sg34
F18.0
sbs(g9
S'head'
p5369
tp5370
g0
(g14
g2
Ntp5371
Rp5372
(dp5373
g18
F0.5
sg19
I17
sg20
g0
(g21
g22
(dp5374
I01
I1
sNI16
stp5375
Rp5376
(dp5377
g19
I17
sg27
Nsg28
(lp5378
(NI16
tp5379
a(I01
I1
tp5380
asg32
Nsbsg33
I2
sg34
F18.0
sbs(g8
g4671
tp5381
g0
(g14
g2
Ntp5382
Rp5383
(dp5384
g18
F0.5
sg19
I19
sg20
g0
(g21
g22
(dp5385
NI19
stp5386
Rp5387
(dp5388
g19
I19
sg27
Nsg28
(lp5389
(NI19
tp5390
asg32
Nsbsg33
I2
sg34
F20.0
sbs(g8
g533
tp5391
g0
(g14
g2
Ntp5392
Rp5393
(dp5394
g18
F0.5
sg19
I19
sg20
g0
(g21
g22
(dp5395
NI19
stp5396
Rp5397
(dp5398
g19
I19
sg27
Nsg28
(lp5399
(NI19
tp5400
asg32
Nsbsg33
I2
sg34
F20.0
sbs(g9
S'with'
p5401
tp5402
g0
(g14
g2
Ntp5403
Rp5404
(dp5405
g18
F0.5
sg19
I17
sg20
g0
(g21
g22
(dp5406
I01
I3
sNI14
stp5407
Rp5408
(dp5409
g19
I17
sg27
Nsg28
(lp5410
(NI14
tp5411
a(I01
I3
tp5412
asg32
Nsbsg33
I2
sg34
F18.0
sbs(g9
g4705
tp5413
g0
(g14
g2
Ntp5414
Rp5415
(dp5416
g18
F0.5
sg19
I17
sg20
g0
(g21
g22
(dp5417
I01
I1
sNI16
stp5418
Rp5419
(dp5420
g19
I17
sg27
Nsg28
(lp5421
(NI16
tp5422
a(I01
I1
tp5423
asg32
Nsbsg33
I2
sg34
F18.0
sbs(g8
g3719
tp5424
g0
(g14
g2
Ntp5425
Rp5426
(dp5427
g18
F0.5
sg19
I19
sg20
g0
(g21
g22
(dp5428
I01
I1
sNI18
stp5429
Rp5430
(dp5431
g19
I19
sg27
Nsg28
(lp5432
(NI18
tp5433
a(I01
I1
tp5434
asg32
Nsbsg33
I2
sg34
F20.0
sbs(g8
g2958
tp5435
g0
(g14
g2
Ntp5436
Rp5437
(dp5438
g18
F0.5
sg19
I19
sg20
g0
(g21
g22
(dp5439
I01
I1
sNI18
stp5440
Rp5441
(dp5442
g19
I19
sg27
Nsg28
(lp5443
(NI18
tp5444
a(I01
I1
tp5445
asg32
Nsbsg33
I2
sg34
F20.0
sbs(g8
g3887
tp5446
g0
(g14
g2
Ntp5447
Rp5448
(dp5449
g18
F0.5
sg19
I19
sg20
g0
(g21
g22
(dp5450
NI19
stp5451
Rp5452
(dp5453
g19
I19
sg27
Nsg28
(lp5454
(NI19
tp5455
asg32
Nsbsg33
I2
sg34
F20.0
sbs(g9
g2210
tp5456
g0
(g14
g2
Ntp5457
Rp5458
(dp5459
g18
F0.5
sg19
I17
sg20
g0
(g21
g22
(dp5460
NI17
stp5461
Rp5462
(dp5463
g19
I17
sg27
Nsg28
(lp5464
(NI17
tp5465
asg32
Nsbsg33
I2
sg34
F18.0
sbs(g8
g3255
tp5466
g0
(g14
g2
Ntp5467
Rp5468
(dp5469
g18
F0.5
sg19
I19
sg20
g0
(g21
g22
(dp5470
I01
I1
sNI18
stp5471
Rp5472
(dp5473
g19
I19
sg27
Nsg28
(lp5474
(NI18
tp5475
a(I01
I1
tp5476
asg32
Nsbsg33
I2
sg34
F20.0
sbs(g9
S'leaving'
p5477
tp5478
g0
(g14
g2
Ntp5479
Rp5480
(dp5481
g18
F0.5
sg19
I17
sg20
g0
(g21
g22
(dp5482
NI17
stp5483
Rp5484
(dp5485
g19
I17
sg27
Nsg28
(lp5486
(NI17
tp5487
asg32
Nsbsg33
I2
sg34
F18.0
sbs(g9
g4850
tp5488
g0
(g14
g2
Ntp5489
Rp5490
(dp5491
g18
F0.5
sg19
I17
sg20
g0
(g21
g22
(dp5492
I01
I1
sNI16
stp5493
Rp5494
(dp5495
g19
I17
sg27
Nsg28
(lp5496
(NI16
tp5497
a(I01
I1
tp5498
asg32
Nsbsg33
I2
sg34
F18.0
sbs(g9
S'promised'
p5499
tp5500
g0
(g14
g2
Ntp5501
Rp5502
(dp5503
g18
F0.5
sg19
I17
sg20
g0
(g21
g22
(dp5504
I01
I1
sNI16
stp5505
Rp5506
(dp5507
g19
I17
sg27
Nsg28
(lp5508
(NI16
tp5509
a(I01
I1
tp5510
asg32
Nsbsg33
I2
sg34
F18.0
sbs(g9
g811
tp5511
g0
(g14
g2
Ntp5512
Rp5513
(dp5514
g18
F0.5
sg19
I17
sg20
g0
(g21
g22
(dp5515
I01
I1
sNI16
stp5516
Rp5517
(dp5518
g19
I17
sg27
Nsg28
(lp5519
(NI16
tp5520
a(I01
I1
tp5521
asg32
Nsbsg33
I2
sg34
F18.0
sbs(g8
g3954
tp5522
g0
(g14
g2
Ntp5523
Rp5524
(dp5525
g18
F0.5
sg19
I19
sg20
g0
(g21
g22
(dp5526
I01
I14
sNI5
stp5527
Rp5528
(dp5529
g19
I19
sg27
Nsg28
(lp5530
(I01
I14
tp5531
a(NI5
tp5532
asg32
Nsbsg33
I2
sg34
F20.0
sbs(g9
g3787
tp5533
g0
(g14
g2
Ntp5534
Rp5535
(dp5536
g18
F0.5
sg19
I17
sg20
g0
(g21
g22
(dp5537
NI17
stp5538
Rp5539
(dp5540
g19
I17
sg27
Nsg28
(lp5541
(NI17
tp5542
asg32
Nsbsg33
I2
sg34
F18.0
sbs(g8
g834
tp5543
g0
(g14
g2
Ntp5544
Rp5545
(dp5546
g18
F0.5
sg19
I19
sg20
g0
(g21
g22
(dp5547
NI19
stp5548
Rp5549
(dp5550
g19
I19
sg27
Nsg28
(lp5551
(NI19
tp5552
asg32
Nsbsg33
I2
sg34
F20.0
sbs(g9
S's.'
p5553
tp5554
g0
(g14
g2
Ntp5555
Rp5556
(dp5557
g18
F0.5
sg19
I17
sg20
g0
(g21
g22
(dp5558
NI17
stp5559
Rp5560
(dp5561
g19
I17
sg27
Nsg28
(lp5562
(NI17
tp5563
asg32
Nsbsg33
I2
sg34
F18.0
sbs(g8
g707
tp5564
g0
(g14
g2
Ntp5565
Rp5566
(dp5567
g18
F0.5
sg19
I19
sg20
g0
(g21
g22
(dp5568
NI19
stp5569
Rp5570
(dp5571
g19
I19
sg27
Nsg28
(lp5572
(NI19
tp5573
asg32
Nsbsg33
I2
sg34
F20.0
sbs(g8
g3876
tp5574
g0
(g14
g2
Ntp5575
Rp5576
(dp5577
g18
F0.5
sg19
I19
sg20
g0
(g21
g22
(dp5578
I01
I1
sNI18
stp5579
Rp5580
(dp5581
g19
I19
sg27
Nsg28
(lp5582
(NI18
tp5583
a(I01
I1
tp5584
asg32
Nsbsg33
I2
sg34
F20.0
sbs(g8
g580
tp5585
g0
(g14
g2
Ntp5586
Rp5587
(dp5588
g18
F0.5
sg19
I19
sg20
g0
(g21
g22
(dp5589
NI19
stp5590
Rp5591
(dp5592
g19
I19
sg27
Nsg28
(lp5593
(NI19
tp5594
asg32
Nsbsg33
I2
sg34
F20.0
sbs(g9
S'family'
p5595
tp5596
g0
(g14
g2
Ntp5597
Rp5598
(dp5599
g18
F0.5
sg19
I17
sg20
g0
(g21
g22
(dp5600
I01
I1
sNI16
stp5601
Rp5602
(dp5603
g19
I17
sg27
Nsg28
(lp5604
(NI16
tp5605
a(I01
I1
tp5606
asg32
Nsbsg33
I2
sg34
F18.0
sbs(g8
g362
tp5607
g0
(g14
g2
Ntp5608
Rp5609
(dp5610
g18
F0.5
sg19
I19
sg20
g0
(g21
g22
(dp5611
NI19
stp5612
Rp5613
(dp5614
g19
I19
sg27
Nsg28
(lp5615
(NI19
tp5616
asg32
Nsbsg33
I2
sg34
F20.0
sbs(g9
g4029
tp5617
g0
(g14
g2
Ntp5618
Rp5619
(dp5620
g18
F0.5
sg19
I17
sg20
g0
(g21
g22
(dp5621
NI17
stp5622
Rp5623
(dp5624
g19
I17
sg27
Nsg28
(lp5625
(NI17
tp5626
asg32
Nsbsg33
I2
sg34
F18.0
sbs(g9
g4737
tp5627
g0
(g14
g2
Ntp5628
Rp5629
(dp5630
g18
F0.5
sg19
I17
sg20
g0
(g21
g22
(dp5631
I01
I1
sNI16
stp5632
Rp5633
(dp5634
g19
I17
sg27
Nsg28
(lp5635
(NI16
tp5636
a(I01
I1
tp5637
asg32
Nsbsg33
I2
sg34
F18.0
sbs(g9
g2333
tp5638
g0
(g14
g2
Ntp5639
Rp5640
(dp5641
g18
F0.5
sg19
I17
sg20
g0
(g21
g22
(dp5642
I01
I7
sNI10
stp5643
Rp5644
(dp5645
g19
I17
sg27
Nsg28
(lp5646
(NI10
tp5647
a(I01
I7
tp5648
asg32
Nsbsg33
I2
sg34
F18.0
sbs(g9
g1490
tp5649
g0
(g14
g2
Ntp5650
Rp5651
(dp5652
g18
F0.5
sg19
I17
sg20
g0
(g21
g22
(dp5653
NI17
stp5654
Rp5655
(dp5656
g19
I17
sg27
Nsg28
(lp5657
(NI17
tp5658
asg32
Nsbsg33
I2
sg34
F18.0
sbs(g8
S'be'
p5659
tp5660
g0
(g14
g2
Ntp5661
Rp5662
(dp5663
g18
F0.5
sg19
I19
sg20
g0
(g21
g22
(dp5664
I01
I5
sNI14
stp5665
Rp5666
(dp5667
g19
I19
sg27
Nsg28
(lp5668
(NI14
tp5669
a(I01
I5
tp5670
asg32
Nsbsg33
I2
sg34
F20.0
sbs(g8
S'read'
p5671
tp5672
g0
(g14
g2
Ntp5673
Rp5674
(dp5675
g18
F0.5
sg19
I19
sg20
g0
(g21
g22
(dp5676
NI19
stp5677
Rp5678
(dp5679
g19
I19
sg27
Nsg28
(lp5680
(NI19
tp5681
asg32
Nsbsg33
I2
sg34
F20.0
sbs(g8
g3511
tp5682
g0
(g14
g2
Ntp5683
Rp5684
(dp5685
g18
F0.5
sg19
I19
sg20
g0
(g21
g22
(dp5686
I01
I2
sNI17
stp5687
Rp5688
(dp5689
g19
I19
sg27
Nsg28
(lp5690
(NI17
tp5691
a(I01
I2
tp5692
asg32
Nsbsg33
I2
sg34
F20.0
sbs(g8
S'during'
p5693
tp5694
g0
(g14
g2
Ntp5695
Rp5696
(dp5697
g18
F0.5
sg19
I19
sg20
g0
(g21
g22
(dp5698
I01
I1
sNI18
stp5699
Rp5700
(dp5701
g19
I19
sg27
Nsg28
(lp5702
(NI18
tp5703
a(I01
I1
tp5704
asg32
Nsbsg33
I2
sg34
F20.0
sbs(g8
g1573
tp5705
g0
(g14
g2
Ntp5706
Rp5707
(dp5708
g18
F0.5
sg19
I19
sg20
g0
(g21
g22
(dp5709
NI19
stp5710
Rp5711
(dp5712
g19
I19
sg27
Nsg28
(lp5713
(NI19
tp5714
asg32
Nsbsg33
I2
sg34
F20.0
sbs(g8
g2449
tp5715
g0
(g14
g2
Ntp5716
Rp5717
(dp5718
g18
F0.5
sg19
I19
sg20
g0
(g21
g22
(dp5719
I01
I1
sNI18
stp5720
Rp5721
(dp5722
g19
I19
sg27
Nsg28
(lp5723
(NI18
tp5724
a(I01
I1
tp5725
asg32
Nsbsg33
I2
sg34
F20.0
sbs(g8
g5055
tp5726
g0
(g14
g2
Ntp5727
Rp5728
(dp5729
g18
F0.5
sg19
I19
sg20
g0
(g21
g22
(dp5730
I01
I1
sNI18
stp5731
Rp5732
(dp5733
g19
I19
sg27
Nsg28
(lp5734
(NI18
tp5735
a(I01
I1
tp5736
asg32
Nsbsg33
I2
sg34
F20.0
sbs(g8
g1478
tp5737
g0
(g14
g2
Ntp5738
Rp5739
(dp5740
g18
F0.5
sg19
I19
sg20
g0
(g21
g22
(dp5741
NI19
stp5742
Rp5743
(dp5744
g19
I19
sg27
Nsg28
(lp5745
(NI19
tp5746
asg32
Nsbsg33
I2
sg34
F20.0
sbs(g8
S'family'
p5747
tp5748
g0
(g14
g2
Ntp5749
Rp5750
(dp5751
g18
F0.5
sg19
I19
sg20
g0
(g21
g22
(dp5752
I01
I1
sNI18
stp5753
Rp5754
(dp5755
g19
I19
sg27
Nsg28
(lp5756
(NI18
tp5757
a(I01
I1
tp5758
asg32
Nsbsg33
I2
sg34
F20.0
sbs(g9
g3775
tp5759
g0
(g14
g2
Ntp5760
Rp5761
(dp5762
g18
F0.5
sg19
I17
sg20
g0
(g21
g22
(dp5763
NI17
stp5764
Rp5765
(dp5766
g19
I17
sg27
Nsg28
(lp5767
(NI17
tp5768
asg32
Nsbsg33
I2
sg34
F18.0
sbs(g9
g2616
tp5769
g0
(g14
g2
Ntp5770
Rp5771
(dp5772
g18
F0.5
sg19
I17
sg20
g0
(g21
g22
(dp5773
NI17
stp5774
Rp5775
(dp5776
g19
I17
sg27
Nsg28
(lp5777
(NI17
tp5778
asg32
Nsbsg33
I2
sg34
F18.0
sbs(g8
g2482
tp5779
g0
(g14
g2
Ntp5780
Rp5781
(dp5782
g18
F0.5
sg19
I19
sg20
g0
(g21
g22
(dp5783
I01
I6
sNI13
stp5784
Rp5785
(dp5786
g19
I19
sg27
Nsg28
(lp5787
(NI13
tp5788
a(I01
I6
tp5789
asg32
Nsbsg33
I2
sg34
F20.0
sbs(g9
g4771
tp5790
g0
(g14
g2
Ntp5791
Rp5792
(dp5793
g18
F0.5
sg19
I17
sg20
g0
(g21
g22
(dp5794
I01
I1
sNI16
stp5795
Rp5796
(dp5797
g19
I17
sg27
Nsg28
(lp5798
(NI16
tp5799
a(I01
I1
tp5800
asg32
Nsbsg33
I2
sg34
F18.0
sbs(g9
g2393
tp5801
g0
(g14
g2
Ntp5802
Rp5803
(dp5804
g18
F0.5
sg19
I17
sg20
g0
(g21
g22
(dp5805
I01
I1
sNI16
stp5806
Rp5807
(dp5808
g19
I17
sg27
Nsg28
(lp5809
(NI16
tp5810
a(I01
I1
tp5811
asg32
Nsbsg33
I2
sg34
F18.0
sbs(g9
g1549
tp5812
g0
(g14
g2
Ntp5813
Rp5814
(dp5815
g18
F0.5
sg19
I17
sg20
g0
(g21
g22
(dp5816
NI17
stp5817
Rp5818
(dp5819
g19
I17
sg27
Nsg28
(lp5820
(NI17
tp5821
asg32
Nsbsg33
I2
sg34
F18.0
sbs(g8
g117
tp5822
g0
(g14
g2
Ntp5823
Rp5824
(dp5825
g18
F0.5
sg19
I19
sg20
g0
(g21
g22
(dp5826
NI19
stp5827
Rp5828
(dp5829
g19
I19
sg27
Nsg28
(lp5830
(NI19
tp5831
asg32
Nsbsg33
I2
sg34
F20.0
sbs(g8
g5206
tp5832
g0
(g14
g2
Ntp5833
Rp5834
(dp5835
g18
F0.5
sg19
I19
sg20
g0
(g21
g22
(dp5836
I01
I1
sNI18
stp5837
Rp5838
(dp5839
g19
I19
sg27
Nsg28
(lp5840
(NI18
tp5841
a(I01
I1
tp5842
asg32
Nsbsg33
I2
sg34
F20.0
sbs(g9
S'nothing'
p5843
tp5844
g0
(g14
g2
Ntp5845
Rp5846
(dp5847
g18
F0.5
sg19
I17
sg20
g0
(g21
g22
(dp5848
I01
I1
sNI16
stp5849
Rp5850
(dp5851
g19
I17
sg27
Nsg28
(lp5852
(NI16
tp5853
a(I01
I1
tp5854
asg32
Nsbsg33
I2
sg34
F18.0
sbs(g9
S'propmale'
p5855
tp5856
g0
(g14
g2
Ntp5857
Rp5858
(dp5859
g18
F0.5
sg19
I17
sg20
g0
(g21
g22
(dp5860
I01
I1
sNI16
stp5861
Rp5862
(dp5863
g19
I17
sg27
Nsg28
(lp5864
(NI16
tp5865
a(I01
I1
tp5866
asg32
Nsbsg33
I2
sg34
F18.0
sbs(g9
g374
tp5867
g0
(g14
g2
Ntp5868
Rp5869
(dp5870
g18
F0.5
sg19
I17
sg20
g0
(g21
g22
(dp5871
NI17
stp5872
Rp5873
(dp5874
g19
I17
sg27
Nsg28
(lp5875
(NI17
tp5876
asg32
Nsbsg33
I2
sg34
F18.0
sbs(g9
g212
tp5877
g0
(g14
g2
Ntp5878
Rp5879
(dp5880
g18
F0.5
sg19
I17
sg20
g0
(g21
g22
(dp5881
NI17
stp5882
Rp5883
(dp5884
g19
I17
sg27
Nsg28
(lp5885
(NI17
tp5886
asg32
Nsbsg33
I2
sg34
F18.0
sbs(g9
g3742
tp5887
g0
(g14
g2
Ntp5888
Rp5889
(dp5890
g18
F0.5
sg19
I17
sg20
g0
(g21
g22
(dp5891
NI17
stp5892
Rp5893
(dp5894
g19
I17
sg27
Nsg28
(lp5895
(NI17
tp5896
asg32
Nsbsg33
I2
sg34
F18.0
sbs(g8
g2652
tp5897
g0
(g14
g2
Ntp5898
Rp5899
(dp5900
g18
F0.5
sg19
I19
sg20
g0
(g21
g22
(dp5901
NI19
stp5902
Rp5903
(dp5904
g19
I19
sg27
Nsg28
(lp5905
(NI19
tp5906
asg32
Nsbsg33
I2
sg34
F20.0
sbs(g9
g2051
tp5907
g0
(g14
g2
Ntp5908
Rp5909
(dp5910
g18
F0.5
sg19
I17
sg20
g0
(g21
g22
(dp5911
I01
I1
sNI16
stp5912
Rp5913
(dp5914
g19
I17
sg27
Nsg28
(lp5915
(NI16
tp5916
a(I01
I1
tp5917
asg32
Nsbsg33
I2
sg34
F18.0
sbs(g9
g1240
tp5918
g0
(g14
g2
Ntp5919
Rp5920
(dp5921
g18
F0.5
sg19
I17
sg20
g0
(g21
g22
(dp5922
I01
I1
sNI16
stp5923
Rp5924
(dp5925
g19
I17
sg27
Nsg28
(lp5926
(NI16
tp5927
a(I01
I1
tp5928
asg32
Nsbsg33
I2
sg34
F18.0
sbs(g9
g282
tp5929
g0
(g14
g2
Ntp5930
Rp5931
(dp5932
g18
F0.5
sg19
I17
sg20
g0
(g21
g22
(dp5933
NI17
stp5934
Rp5935
(dp5936
g19
I17
sg27
Nsg28
(lp5937
(NI17
tp5938
asg32
Nsbsg33
I2
sg34
F18.0
sbs(g9
g4422
tp5939
g0
(g14
g2
Ntp5940
Rp5941
(dp5942
g18
F0.5
sg19
I17
sg20
g0
(g21
g22
(dp5943
I01
I1
sNI16
stp5944
Rp5945
(dp5946
g19
I17
sg27
Nsg28
(lp5947
(NI16
tp5948
a(I01
I1
tp5949
asg32
Nsbsg33
I2
sg34
F18.0
sbs(g9
g3442
tp5950
g0
(g14
g2
Ntp5951
Rp5952
(dp5953
g18
F0.5
sg19
I17
sg20
g0
(g21
g22
(dp5954
NI17
stp5955
Rp5956
(dp5957
g19
I17
sg27
Nsg28
(lp5958
(NI17
tp5959
asg32
Nsbsg33
I2
sg34
F18.0
sbs(g9
g1902
tp5960
g0
(g14
g2
Ntp5961
Rp5962
(dp5963
g18
F0.5
sg19
I17
sg20
g0
(g21
g22
(dp5964
I01
I1
sNI16
stp5965
Rp5966
(dp5967
g19
I17
sg27
Nsg28
(lp5968
(NI16
tp5969
a(I01
I1
tp5970
asg32
Nsbsg33
I2
sg34
F18.0
sbs(g8
g5260
tp5971
g0
(g14
g2
Ntp5972
Rp5973
(dp5974
g18
F0.5
sg19
I19
sg20
g0
(g21
g22
(dp5975
I01
I1
sNI18
stp5976
Rp5977
(dp5978
g19
I19
sg27
Nsg28
(lp5979
(NI18
tp5980
a(I01
I1
tp5981
asg32
Nsbsg33
I2
sg34
F20.0
sbs(g9
g4594
tp5982
g0
(g14
g2
Ntp5983
Rp5984
(dp5985
g18
F0.5
sg19
I17
sg20
g0
(g21
g22
(dp5986
NI17
stp5987
Rp5988
(dp5989
g19
I17
sg27
Nsg28
(lp5990
(NI17
tp5991
asg32
Nsbsg33
I2
sg34
F18.0
sbs(g8
S'less'
p5992
tp5993
g0
(g14
g2
Ntp5994
Rp5995
(dp5996
g18
F0.5
sg19
I19
sg20
g0
(g21
g22
(dp5997
I01
I1
sNI18
stp5998
Rp5999
(dp6000
g19
I19
sg27
Nsg28
(lp6001
(NI18
tp6002
a(I01
I1
tp6003
asg32
Nsbsg33
I2
sg34
F20.0
sbs(g9
g3996
tp6004
g0
(g14
g2
Ntp6005
Rp6006
(dp6007
g18
F0.5
sg19
I17
sg20
g0
(g21
g22
(dp6008
I01
I1
sNI16
stp6009
Rp6010
(dp6011
g19
I17
sg27
Nsg28
(lp6012
(NI16
tp6013
a(I01
I1
tp6014
asg32
Nsbsg33
I2
sg34
F18.0
sbs(g8
S"won't"
p6015
tp6016
g0
(g14
g2
Ntp6017
Rp6018
(dp6019
g18
F0.5
sg19
I19
sg20
g0
(g21
g22
(dp6020
NI19
stp6021
Rp6022
(dp6023
g19
I19
sg27
Nsg28
(lp6024
(NI19
tp6025
asg32
Nsbsg33
I2
sg34
F20.0
sbs(g8
g5477
tp6026
g0
(g14
g2
Ntp6027
Rp6028
(dp6029
g18
F0.5
sg19
I19
sg20
g0
(g21
g22
(dp6030
I01
I1
sNI18
stp6031
Rp6032
(dp6033
g19
I19
sg27
Nsg28
(lp6034
(NI18
tp6035
a(I01
I1
tp6036
asg32
Nsbsg33
I2
sg34
F20.0
sbs(g9
g1217
tp6037
g0
(g14
g2
Ntp6038
Rp6039
(dp6040
g18
F0.5
sg19
I17
sg20
g0
(g21
g22
(dp6041
I01
I2
sNI15
stp6042
Rp6043
(dp6044
g19
I17
sg27
Nsg28
(lp6045
(NI15
tp6046
a(I01
I2
tp6047
asg32
Nsbsg33
I2
sg34
F18.0
sbs(g9
g5693
tp6048
g0
(g14
g2
Ntp6049
Rp6050
(dp6051
g18
F0.5
sg19
I17
sg20
g0
(g21
g22
(dp6052
NI17
stp6053
Rp6054
(dp6055
g19
I17
sg27
Nsg28
(lp6056
(NI17
tp6057
asg32
Nsbsg33
I2
sg34
F18.0
sbs(g9
g4716
tp6058
g0
(g14
g2
Ntp6059
Rp6060
(dp6061
g18
F0.5
sg19
I17
sg20
g0
(g21
g22
(dp6062
I01
I1
sNI16
stp6063
Rp6064
(dp6065
g19
I17
sg27
Nsg28
(lp6066
(NI16
tp6067
a(I01
I1
tp6068
asg32
Nsbsg33
I2
sg34
F18.0
sbs(g8
g2246
tp6069
g0
(g14
g2
Ntp6070
Rp6071
(dp6072
g18
F0.5
sg19
I19
sg20
g0
(g21
g22
(dp6073
NI19
stp6074
Rp6075
(dp6076
g19
I19
sg27
Nsg28
(lp6077
(NI19
tp6078
asg32
Nsbsg33
I2
sg34
F20.0
sbs(g9
g4551
tp6079
g0
(g14
g2
Ntp6080
Rp6081
(dp6082
g18
F0.5
sg19
I17
sg20
g0
(g21
g22
(dp6083
NI17
stp6084
Rp6085
(dp6086
g19
I17
sg27
Nsg28
(lp6087
(NI17
tp6088
asg32
Nsbsg33
I2
sg34
F18.0
sbs(g9
g1297
tp6089
g0
(g14
g2
Ntp6090
Rp6091
(dp6092
g18
F0.5
sg19
I17
sg20
g0
(g21
g22
(dp6093
NI17
stp6094
Rp6095
(dp6096
g19
I17
sg27
Nsg28
(lp6097
(NI17
tp6098
asg32
Nsbsg33
I2
sg34
F18.0
sbs(g9
g6015
tp6099
g0
(g14
g2
Ntp6100
Rp6101
(dp6102
g18
F0.5
sg19
I17
sg20
g0
(g21
g22
(dp6103
I01
I1
sNI16
stp6104
Rp6105
(dp6106
g19
I17
sg27
Nsg28
(lp6107
(NI16
tp6108
a(I01
I1
tp6109
asg32
Nsbsg33
I2
sg34
F18.0
sbs(g8
S'you'
p6110
tp6111
g0
(g14
g2
Ntp6112
Rp6113
(dp6114
g18
F0.5
sg19
I19
sg20
g0
(g21
g22
(dp6115
I01
I4
sNI15
stp6116
Rp6117
(dp6118
g19
I19
sg27
Nsg28
(lp6119
(NI15
tp6120
a(I01
I4
tp6121
asg32
Nsbsg33
I2
sg34
F20.0
sbs(g9
g2310
tp6122
g0
(g14
g2
Ntp6123
Rp6124
(dp6125
g18
F0.5
sg19
I17
sg20
g0
(g21
g22
(dp6126
I01
I1
sNI16
stp6127
Rp6128
(dp6129
g19
I17
sg27
Nsg28
(lp6130
(NI16
tp6131
a(I01
I1
tp6132
asg32
Nsbsg33
I2
sg34
F18.0
sbs(g8
g2710
tp6133
g0
(g14
g2
Ntp6134
Rp6135
(dp6136
g18
F0.5
sg19
I19
sg20
g0
(g21
g22
(dp6137
NI19
stp6138
Rp6139
(dp6140
g19
I19
sg27
Nsg28
(lp6141
(NI19
tp6142
asg32
Nsbsg33
I2
sg34
F20.0
sbs(g8
g5109
tp6143
g0
(g14
g2
Ntp6144
Rp6145
(dp6146
g18
F0.5
sg19
I19
sg20
g0
(g21
g22
(dp6147
I01
I3
sNI16
stp6148
Rp6149
(dp6150
g19
I19
sg27
Nsg28
(lp6151
(NI16
tp6152
a(I01
I3
tp6153
asg32
Nsbsg33
I2
sg34
F20.0
sbs(g9
g5347
tp6154
g0
(g14
g2
Ntp6155
Rp6156
(dp6157
g18
F0.5
sg19
I17
sg20
g0
(g21
g22
(dp6158
NI17
stp6159
Rp6160
(dp6161
g19
I17
sg27
Nsg28
(lp6162
(NI17
tp6163
asg32
Nsbsg33
I2
sg34
F18.0
sbs(g9
g2936
tp6164
g0
(g14
g2
Ntp6165
Rp6166
(dp6167
g18
F0.5
sg19
I17
sg20
g0
(g21
g22
(dp6168
I01
I1
sNI16
stp6169
Rp6170
(dp6171
g19
I17
sg27
Nsg28
(lp6172
(NI16
tp6173
a(I01
I1
tp6174
asg32
Nsbsg33
I2
sg34
F18.0
sbs(g8
S'saint'
p6175
tp6176
g0
(g14
g2
Ntp6177
Rp6178
(dp6179
g18
F0.5
sg19
I19
sg20
g0
(g21
g22
(dp6180
NI19
stp6181
Rp6182
(dp6183
g19
I19
sg27
Nsg28
(lp6184
(NI19
tp6185
asg32
Nsbsg33
I2
sg34
F20.0
sbs(g9
g2969
tp6186
g0
(g14
g2
Ntp6187
Rp6188
(dp6189
g18
F0.5
sg19
I17
sg20
g0
(g21
g22
(dp6190
I01
I2
sNI15
stp6191
Rp6192
(dp6193
g19
I17
sg27
Nsg28
(lp6194
(NI15
tp6195
a(I01
I2
tp6196
asg32
Nsbsg33
I2
sg34
F18.0
sbs(g8
g4638
tp6197
g0
(g14
g2
Ntp6198
Rp6199
(dp6200
g18
F0.5
sg19
I19
sg20
g0
(g21
g22
(dp6201
NI19
stp6202
Rp6203
(dp6204
g19
I19
sg27
Nsg28
(lp6205
(NI19
tp6206
asg32
Nsbsg33
I2
sg34
F20.0
sbs(g8
g5843
tp6207
g0
(g14
g2
Ntp6208
Rp6209
(dp6210
g18
F0.5
sg19
I19
sg20
g0
(g21
g22
(dp6211
NI19
stp6212
Rp6213
(dp6214
g19
I19
sg27
Nsg28
(lp6215
(NI19
tp6216
asg32
Nsbsg33
I2
sg34
F20.0
sbs(g8
g3943
tp6217
g0
(g14
g2
Ntp6218
Rp6219
(dp6220
g18
F0.5
sg19
I19
sg20
g0
(g21
g22
(dp6221
I01
I1
sNI18
stp6222
Rp6223
(dp6224
g19
I19
sg27
Nsg28
(lp6225
(NI18
tp6226
a(I01
I1
tp6227
asg32
Nsbsg33
I2
sg34
F20.0
sbs(g8
g4302
tp6228
g0
(g14
g2
Ntp6229
Rp6230
(dp6231
g18
F0.5
sg19
I19
sg20
g0
(g21
g22
(dp6232
I01
I1
sNI18
stp6233
Rp6234
(dp6235
g19
I19
sg27
Nsg28
(lp6236
(NI18
tp6237
a(I01
I1
tp6238
asg32
Nsbsg33
I2
sg34
F20.0
sbs(g9
g3046
tp6239
g0
(g14
g2
Ntp6240
Rp6241
(dp6242
g18
F0.5
sg19
I17
sg20
g0
(g21
g22
(dp6243
NI17
stp6244
Rp6245
(dp6246
g19
I17
sg27
Nsg28
(lp6247
(NI17
tp6248
asg32
Nsbsg33
I2
sg34
F18.0
sbs(g8
g2843
tp6249
g0
(g14
g2
Ntp6250
Rp6251
(dp6252
g18
F0.5
sg19
I19
sg20
g0
(g21
g22
(dp6253
NI19
stp6254
Rp6255
(dp6256
g19
I19
sg27
Nsg28
(lp6257
(NI19
tp6258
asg32
Nsbsg33
I2
sg34
F20.0
sbs(g9
g3012
tp6259
g0
(g14
g2
Ntp6260
Rp6261
(dp6262
g18
F0.5
sg19
I17
sg20
g0
(g21
g22
(dp6263
I01
I2
sNI15
stp6264
Rp6265
(dp6266
g19
I17
sg27
Nsg28
(lp6267
(NI15
tp6268
a(I01
I2
tp6269
asg32
Nsbsg33
I2
sg34
F18.0
sbs(g8
g105
tp6270
g0
(g14
g2
Ntp6271
Rp6272
(dp6273
g18
F0.5
sg19
I19
sg20
g0
(g21
g22
(dp6274
NI19
stp6275
Rp6276
(dp6277
g19
I19
sg27
Nsg28
(lp6278
(NI19
tp6279
asg32
Nsbsg33
I2
sg34
F20.0
sbs(g9
g1890
tp6280
g0
(g14
g2
Ntp6281
Rp6282
(dp6283
g18
F0.5
sg19
I17
sg20
g0
(g21
g22
(dp6284
NI17
stp6285
Rp6286
(dp6287
g19
I17
sg27
Nsg28
(lp6288
(NI17
tp6289
asg32
Nsbsg33
I2
sg34
F18.0
sbs(g8
g4129
tp6290
g0
(g14
g2
Ntp6291
Rp6292
(dp6293
g18
F0.5
sg19
I19
sg20
g0
(g21
g22
(dp6294
I01
I3
sNI16
stp6295
Rp6296
(dp6297
g19
I19
sg27
Nsg28
(lp6298
(NI16
tp6299
a(I01
I3
tp6300
asg32
Nsbsg33
I2
sg34
F20.0
sbs(g9
g4117
tp6301
g0
(g14
g2
Ntp6302
Rp6303
(dp6304
g18
F0.5
sg19
I17
sg20
g0
(g21
g22
(dp6305
NI17
stp6306
Rp6307
(dp6308
g19
I17
sg27
Nsg28
(lp6309
(NI17
tp6310
asg32
Nsbsg33
I2
sg34
F18.0
sbs(g8
g5553
tp6311
g0
(g14
g2
Ntp6312
Rp6313
(dp6314
g18
F0.5
sg19
I19
sg20
g0
(g21
g22
(dp6315
I01
I1
sNI18
stp6316
Rp6317
(dp6318
g19
I19
sg27
Nsg28
(lp6319
(NI18
tp6320
a(I01
I1
tp6321
asg32
Nsbsg33
I2
sg34
F20.0
sbs(g8
g521
tp6322
g0
(g14
g2
Ntp6323
Rp6324
(dp6325
g18
F0.5
sg19
I19
sg20
g0
(g21
g22
(dp6326
NI19
stp6327
Rp6328
(dp6329
g19
I19
sg27
Nsg28
(lp6330
(NI19
tp6331
asg32
Nsbsg33
I2
sg34
F20.0
sbs(g9
g5217
tp6332
g0
(g14
g2
Ntp6333
Rp6334
(dp6335
g18
F0.5
sg19
I17
sg20
g0
(g21
g22
(dp6336
I01
I1
sNI16
stp6337
Rp6338
(dp6339
g19
I17
sg27
Nsg28
(lp6340
(NI16
tp6341
a(I01
I1
tp6342
asg32
Nsbsg33
I2
sg34
F18.0
sbs(g9
S'garden'
p6343
tp6344
g0
(g14
g2
Ntp6345
Rp6346
(dp6347
g18
F0.5
sg19
I17
sg20
g0
(g21
g22
(dp6348
I01
I1
sNI16
stp6349
Rp6350
(dp6351
g19
I17
sg27
Nsg28
(lp6352
(NI16
tp6353
a(I01
I1
tp6354
asg32
Nsbsg33
I2
sg34
F18.0
sbs(g8
g3115
tp6355
g0
(g14
g2
Ntp6356
Rp6357
(dp6358
g18
F0.5
sg19
I19
sg20
g0
(g21
g22
(dp6359
I01
I1
sNI18
stp6360
Rp6361
(dp6362
g19
I19
sg27
Nsg28
(lp6363
(NI18
tp6364
a(I01
I1
tp6365
asg32
Nsbsg33
I2
sg34
F20.0
sbs(g8
g5248
tp6366
g0
(g14
g2
Ntp6367
Rp6368
(dp6369
g18
F0.5
sg19
I19
sg20
g0
(g21
g22
(dp6370
NI19
stp6371
Rp6372
(dp6373
g19
I19
sg27
Nsg28
(lp6374
(NI19
tp6375
asg32
Nsbsg33
I2
sg34
F20.0
sbs(g8
g5499
tp6376
g0
(g14
g2
Ntp6377
Rp6378
(dp6379
g18
F0.5
sg19
I19
sg20
g0
(g21
g22
(dp6380
NI19
stp6381
Rp6382
(dp6383
g19
I19
sg27
Nsg28
(lp6384
(NI19
tp6385
asg32
Nsbsg33
I2
sg34
F20.0
sbs(g9
g3298
tp6386
g0
(g14
g2
Ntp6387
Rp6388
(dp6389
g18
F0.5
sg19
I17
sg20
g0
(g21
g22
(dp6390
I01
I1
sNI16
stp6391
Rp6392
(dp6393
g19
I17
sg27
Nsg28
(lp6394
(NI16
tp6395
a(I01
I1
tp6396
asg32
Nsbsg33
I2
sg34
F18.0
sbs(g9
g6175
tp6397
g0
(g14
g2
Ntp6398
Rp6399
(dp6400
g18
F0.5
sg19
I17
sg20
g0
(g21
g22
(dp6401
I01
I1
sNI16
stp6402
Rp6403
(dp6404
g19
I17
sg27
Nsg28
(lp6405
(NI16
tp6406
a(I01
I1
tp6407
asg32
Nsbsg33
I2
sg34
F18.0
sbs(g8
g4041
tp6408
g0
(g14
g2
Ntp6409
Rp6410
(dp6411
g18
F0.5
sg19
I19
sg20
g0
(g21
g22
(dp6412
I01
I1
sNI18
stp6413
Rp6414
(dp6415
g19
I19
sg27
Nsg28
(lp6416
(NI18
tp6417
a(I01
I1
tp6418
asg32
Nsbsg33
I2
sg34
F20.0
sbs(g8
g4883
tp6419
g0
(g14
g2
Ntp6420
Rp6421
(dp6422
g18
F0.5
sg19
I19
sg20
g0
(g21
g22
(dp6423
I01
I1
sNI18
stp6424
Rp6425
(dp6426
g19
I19
sg27
Nsg28
(lp6427
(NI18
tp6428
a(I01
I1
tp6429
asg32
Nsbsg33
I2
sg34
F20.0
sbs(g8
g4248
tp6430
g0
(g14
g2
Ntp6431
Rp6432
(dp6433
g18
F0.5
sg19
I19
sg20
g0
(g21
g22
(dp6434
I01
I1
sNI18
stp6435
Rp6436
(dp6437
g19
I19
sg27
Nsg28
(lp6438
(NI18
tp6439
a(I01
I1
tp6440
asg32
Nsbsg33
I2
sg34
F20.0
sbs(g8
g3309
tp6441
g0
(g14
g2
Ntp6442
Rp6443
(dp6444
g18
F0.5
sg19
I19
sg20
g0
(g21
g22
(dp6445
NI19
stp6446
Rp6447
(dp6448
g19
I19
sg27
Nsg28
(lp6449
(NI19
tp6450
asg32
Nsbsg33
I2
sg34
F20.0
sbs(g9
g5671
tp6451
g0
(g14
g2
Ntp6452
Rp6453
(dp6454
g18
F0.5
sg19
I17
sg20
g0
(g21
g22
(dp6455
I01
I1
sNI16
stp6456
Rp6457
(dp6458
g19
I17
sg27
Nsg28
(lp6459
(NI16
tp6460
a(I01
I1
tp6461
asg32
Nsbsg33
I2
sg34
F18.0
sbs(g9
g2321
tp6462
g0
(g14
g2
Ntp6463
Rp6464
(dp6465
g18
F0.5
sg19
I17
sg20
g0
(g21
g22
(dp6466
NI17
stp6467
Rp6468
(dp6469
g19
I17
sg27
Nsg28
(lp6470
(NI17
tp6471
asg32
Nsbsg33
I2
sg34
F18.0
sbs(g8
g3844
tp6472
g0
(g14
g2
Ntp6473
Rp6474
(dp6475
g18
F0.5
sg19
I19
sg20
g0
(g21
g22
(dp6476
NI19
stp6477
Rp6478
(dp6479
g19
I19
sg27
Nsg28
(lp6480
(NI19
tp6481
asg32
Nsbsg33
I2
sg34
F20.0
sbs(g9
g3179
tp6482
g0
(g14
g2
Ntp6483
Rp6484
(dp6485
g18
F0.5
sg19
I17
sg20
g0
(g21
g22
(dp6486
I01
I1
sNI16
stp6487
Rp6488
(dp6489
g19
I17
sg27
Nsg28
(lp6490
(NI16
tp6491
a(I01
I1
tp6492
asg32
Nsbsg33
I2
sg34
F18.0
sbs(g8
g1675
tp6493
g0
(g14
g2
Ntp6494
Rp6495
(dp6496
g18
F0.5
sg19
I19
sg20
g0
(g21
g22
(dp6497
I01
I1
sNI18
stp6498
Rp6499
(dp6500
g19
I19
sg27
Nsg28
(lp6501
(NI18
tp6502
a(I01
I1
tp6503
asg32
Nsbsg33
I2
sg34
F20.0
sbs(g8
g2640
tp6504
g0
(g14
g2
Ntp6505
Rp6506
(dp6507
g18
F0.5
sg19
I19
sg20
g0
(g21
g22
(dp6508
NI19
stp6509
Rp6510
(dp6511
g19
I19
sg27
Nsg28
(lp6512
(NI19
tp6513
asg32
Nsbsg33
I2
sg34
F20.0
sbs(g8
g905
tp6514
g0
(g14
g2
Ntp6515
Rp6516
(dp6517
g18
F0.5
sg19
I19
sg20
g0
(g21
g22
(dp6518
NI19
stp6519
Rp6520
(dp6521
g19
I19
sg27
Nsg28
(lp6522
(NI19
tp6523
asg32
Nsbsg33
I2
sg34
F20.0
sbs(g8
g592
tp6524
g0
(g14
g2
Ntp6525
Rp6526
(dp6527
g18
F0.5
sg19
I19
sg20
g0
(g21
g22
(dp6528
NI19
stp6529
Rp6530
(dp6531
g19
I19
sg27
Nsg28
(lp6532
(NI19
tp6533
asg32
Nsbsg33
I2
sg34
F20.0
sbs(g8
g3373
tp6534
g0
(g14
g2
Ntp6535
Rp6536
(dp6537
g18
F0.5
sg19
I19
sg20
g0
(g21
g22
(dp6538
NI19
stp6539
Rp6540
(dp6541
g19
I19
sg27
Nsg28
(lp6542
(NI19
tp6543
asg32
Nsbsg33
I2
sg34
F20.0
sbssS'_label_probdist'
p6544
g0
(g14
g2
Ntp6545
Rp6546
(dp6547
g18
F0.5
sg19
I36
sg20
g0
(g21
g22
(dp6548
g8
I19
sg9
I17
stp6549
Rp6550
(dp6551
g19
I36
sg27
Nsg28
(lp6552
(g8
I19
tp6553
a(g9
I17
tp6554
asg32
Nsbsg33
I2
sg34
F37.0
sbsb.