(dp0
S'woods'
p1
I67
sS'hanging'
p2
I977
sS'bringing'
p3
I99
sS'wednesday'
p4
I413
sS'kids'
p5
I1247
sS'dnt'
p6
I137
sS'yahoo'
p7
I50
sS'listenin'
p8
I83
sS">'s,"
p9
I31
sS">'s."
p10
I46
sS'want'
p11
I4109
sS'travel'
p12
I55
sS'wrong'
p13
I536
sS'fit'
p14
I178
sS'screaming'
p15
I74
sS'2day'
p16
I228
sS'pumpkins'
p17
I40
sS'olds'
p18
I33
sS'needed'
p19
I519
sS'master'
p20
I40
sS'feeling'
p21
I2011
sS'tech'
p22
I93
sS'saying'
p23
I341
sS'cooking'
p24
I230
sS'plate'
p25
I40
sS'nicely'
p26
I35
sS'patch'
p27
I33
sS'lots'
p28
I745
sS'nature'
p29
I73
sS'lookin'
p30
I182
sS'fri'
p31
I31
sS'.'
p32
I83190
sS'much'
p33
I5282
sS'fry'
p34
I44
sS'memorial'
p35
I41
sS'academic'
p36
I25
sS'ham'
p37
I43
sS'had'
p38
I9837
sS'hay'
p39
I39
sS'has'
p40
I5616
sS'hat'
p41
I105
sS'crowd'
p42
I30
sS'bottom'
p43
I71
sS'music'
p44
I1281
sS'congratulations'
p45
I131
sS'layin'
p46
I40
sS'nicest'
p47
I30
sS'whoever'
p48
I118
sS'chair'
p49
I97
sS'ballet'
p50
I35
sS'jerk'
p51
I43
sS'exact'
p52
I32
sS'minute'
p53
I274
sS'celebrated'
p54
I36
sS'address'
p55
I52
sS'eatin'
p56
I73
sS'following'
p57
I50
sS'thanking'
p58
I31
sS'bien'
p59
I27
sS'\\'
p60
I9915
sS'didn'
p61
I132
sS'quarter'
p62
I93
sS'seriously'
p63
I425
sS'crazies'
p64
I36
sS'grandma'
p65
I260
sS'turned'
p66
I379
sS'zoo'
p67
I158
sS'opposite'
p68
I32
sS'boys'
p69
I687
sS'fix'
p70
I226
sS'west'
p71
I143
sS'photos'
p72
I138
sS'technology'
p73
I38
sS'being'
p74
I2669
sS'traffic'
p75
I79
sS'yesss'
p76
I117
sS'yay!'
p77
I82
sS'bubble'
p78
I67
sS'yayy'
p79
I76
sS'with'
p80
I23436
sS'dirty'
p81
I110
sS'trips'
p82
I44
sS'watched'
p83
I544
sS'cream'
p84
I458
sS'yoga'
p85
I103
sS'friggin'
p86
I64
sS'ppls'
p87
I35
sS'sang'
p88
I51
sS'sand'
p89
I42
sS'sane'
p90
I31
sS'morn'
p91
I25
sS'more'
p92
I5092
sS'company'
p93
I231
sS'learn'
p94
I343
sS'knocked'
p95
I39
sS'huge'
p96
I284
sS'hugs'
p97
I140
sS'paper'
p98
I641
sS'bummed'
p99
I142
sS'bummer'
p100
I54
sS'sauce'
p101
I78
sS'everytime'
p102
I104
sS'research'
p103
I143
sS':):):)'
p104
I151
sS'essays'
p105
I47
sS'overwhelmed'
p106
I33
sS'insane'
p107
I105
sS'showed'
p108
I81
sS'retarded'
p109
I53
sS'belt'
p110
I33
sS'awake'
p111
I323
sS'34'
p112
I31
sS'3,'
p113
I40
sS'nickname'
p114
I53
sS'kno'
p115
I111
sS'knw'
p116
I32
sS'parents'
p117
I453
sS'couple'
p118
I639
sS'chorus'
p119
I39
sS'bounce'
p120
I27
sS'and/or'
p121
I32
sS'mouth'
p122
I179
sS'berealorbegone'
p123
I35
sS'into'
p124
I1799
sS'train'
p125
I127
sS'decorating'
p126
I74
sS'video'
p127
I292
sS'orleans'
p128
I46
sS'derby'
p129
I26
sS'makes'
p130
I1495
sS'maker'
p131
I27
sS'confidence'
p132
I26
sS'customer'
p133
I37
sS'rode'
p134
I56
sS'comedy'
p135
I41
sS'intelligent'
p136
I28
sS'snake'
p137
I31
sS'books'
p138
I297
sS"'"
p139
I2335
sS'could'
p140
I2385
sS'stomach'
p141
I236
sS'tonight'
p142
I5585
sS'tape'
p143
I48
sS'sinus'
p144
I63
sS'taxes'
p145
I56
sS'stuff'
p146
I1241
sS'ohio'
p147
I102
sS'(7)'
p148
I26
sS'frame'
p149
I31
sS'staring'
p150
I35
sS'escape'
p151
I49
sS'hahaha'
p152
I102
sS'tattoo'
p153
I184
sS'off'
p154
I5683
sS'crack'
p155
I80
sS'become'
p156
I248
sS'gymnastics'
p157
I26
sS'passion'
p158
I59
sS'biology'
p159
I97
sS'swimming'
p160
I372
sS'letters'
p161
I72
sS'brownies'
p162
I152
sS'excitement'
p163
I41
sS'problem'
p164
I201
sS'details'
p165
I62
sS'monkey'
p166
I62
sS'yeaaa'
p167
I27
sS'yikes'
p168
I31
sS'spin'
p169
I33
sS'worth'
p170
I637
sS'panda'
p171
I57
sS'anddd'
p172
I32
sS'stressed'
p173
I131
sS'bro'
p174
I256
sS'nine'
p175
I85
sS'sweater'
p176
I46
sS'cuddle'
p177
I111
sS'elbow'
p178
I28
sS'nuts'
p179
I55
sS'birth'
p180
I55
sS'certified'
p181
I25
sS'another'
p182
I1873
sS'dogs'
p183
I225
sS'cereal'
p184
I54
sS'aunt'
p185
I264
sS'haunted'
p186
I54
sS'runs'
p187
I54
sS'kitchen'
p188
I183
sS'tons'
p189
I178
sS'gratitude'
p190
I28
sS'sleepover'
p191
I74
sS'hav'
p192
I104
sS'dizzy'
p193
I45
sS'client'
p194
I34
sS'thanks'
p195
I3089
sS'night'
p196
I7277
sS'festivities'
p197
I33
sS'teehee'
p198
I31
sS'test'
p199
I786
sS"o'clock"
p200
I25
sS'}'
p201
I30
sS'songs'
p202
I292
sS'battle'
p203
I79
sS'gud'
p204
I45
sS'turns'
p205
I215
sS'gun'
p206
I79
sS'gum'
p207
I50
sS'<LULZ>'
p208
I11255
sS'guy'
p209
I712
sS'=).'
p210
I101
sS'shared'
p211
I41
sS'=)"'
p212
I146
sS'2:30'
p213
I31
sS"hadn't"
p214
I35
sS'teacher'
p215
I210
sS'sending'
p216
I99
sS'regardless'
p217
I56
sS'extra'
p218
I342
sS'nguyen'
p219
I26
sS'chip'
p220
I129
sS'still'
p221
I4002
sS'drop'
p222
I148
sS'yeah'
p223
I1042
sS'year'
p224
I2467
sS'tangled'
p225
I40
sS'caught'
p226
I197
sS'pittsburgh'
p227
I44
sS'apples'
p228
I57
sS'importantly'
p229
I35
sS'7:30'
p230
I54
sS'burst'
p231
I26
sS'hurts'
p232
I742
sS'madness'
p233
I46
sS'sledding'
p234
I45
sS'foot'
p235
I183
sS'death'
p236
I261
sS'fortune'
p237
I55
sS'exciting'
p238
I227
sS'night:)'
p239
I52
sS"isn't"
p240
I564
sS'shower'
p241
I629
sS'poor'
p242
I552
sS'poop'
p243
I51
sS'games'
p244
I401
sS'pool'
p245
I465
sS'chain'
p246
I33
sS'decide'
p247
I111
sS'<LINK>'
p248
I420
sS'startin'
p249
I38
sS'ass'
p250
I663
sS'streets'
p251
I33
sS'textin'
p252
I26
sS'bass'
p253
I60
sS'inspired'
p254
I73
sS'ask'
p255
I614
sS'dios'
p256
I43
sS'downloading'
p257
I31
sS'anytime'
p258
I68
sS'roommates'
p259
I29
sS"haven't"
p260
I553
sS'evening'
p261
I492
sS'ninja'
p262
I72
sS'bless'
p263
I169
sS'heavy'
p264
I82
sS'american'
p265
I217
sS'rawr'
p266
I171
sS'shirts'
p267
I55
sS'wasnt'
p268
I154
sS'randomly'
p269
I65
sS'physics'
p270
I89
sS'kalen'
p271
I68
sS'league'
p272
I53
sS"wouldn't"
p273
I253
sS'30am'
p274
I29
sS'empty'
p275
I90
sS'grand'
p276
I132
sS'obviously'
p277
I55
sS'procrastinating'
p278
I45
sS'showing'
p279
I91
sS'dearly'
p280
I35
sS'lips'
p281
I60
sS'silence'
p282
I52
sS'ordered'
p283
I124
sS'application'
p284
I62
sS'department'
p285
I28
sS'smiles'
p286
I145
sS'smiley'
p287
I124
sS'smiled'
p288
I31
sS'telling'
p289
I143
sS'jump'
p290
I155
sS'vampire'
p291
I93
sS'manage'
p292
I35
sS'camera'
p293
I220
sS'boards'
p294
I30
sS'meee'
p295
I122
sS'meet'
p296
I579
sS'pulling'
p297
I53
sS'a/c'
p298
I30
sS'including'
p299
I99
sS'university'
p300
I103
sS'slide'
p301
I30
sS'raised'
p302
I27
sS'|'
p303
I236
sS'time.'
p304
I42
sS'time!'
p305
I52
sS'blahhh'
p306
I39
sS'times'
p307
I1093
sS'timee'
p308
I27
sS'margaritas'
p309
I34
sS'bitch'
p310
I214
sS'wrapped'
p311
I63
sS'indy'
p312
I25
sS'brighten'
p313
I35
sS'brighter'
p314
I60
sS'kicking'
p315
I96
sS'key'
p316
I154
sS'tuesday'
p317
I471
sS'paranormal'
p318
I57
sS'amo'
p319
I36
sS'shhh'
p320
I25
sS'cocoa'
p321
I47
sS'pointless'
p322
I28
sS'gain'
p323
I35
sS'highest'
p324
I32
sS'kisses'
p325
I79
sS'beats'
p326
I63
sS'kissed'
p327
I29
sS'swan'
p328
I25
sS'sorry'
p329
I746
sS'me!'
p330
I118
sS'me.'
p331
I132
sS'me?'
p332
I27
sS'men'
p333
I189
sS'meh'
p334
I119
sS'met'
p335
I475
sS'room'
p336
I1100
sS'roof'
p337
I60
sS'movies'
p338
I857
sS'root'
p339
I50
sS'third'
p340
I172
sS'looove'
p341
I81
sS'skyping'
p342
I28
sS'deathly'
p343
I28
sS'personal'
p344
I120
sS'crew'
p345
I117
sS'combination'
p346
I28
sS'forgot'
p347
I433
sS'u.s.'
p348
I27
sS'hoodie'
p349
I27
sS'brrr'
p350
I27
sS'2am'
p351
I35
sS'begins'
p352
I156
sS'weekends'
p353
I158
sS'weekend!'
p354
I49
sS'effing'
p355
I38
sS'testing'
p356
I72
sS'seems'
p357
I481
sS'omg'
p358
I708
sS'$'
p359
I630
sS'asks'
p360
I34
sS'lovely'
p361
I544
sS'ugly'
p362
I117
sS'cant'
p363
I2460
sS'realizing'
p364
I48
sS'meets'
p365
I28
sS'yours'
p366
I151
sS'deal'
p367
I216
sS'dead'
p368
I401
sS'dear'
p369
I531
sS'afternoon'
p370
I438
sS'down'
p371
I2402
sS'tennis'
p372
I141
sS'batman'
p373
I38
sS'awhile'
p374
I204
sS'happening'
p375
I105
sS'father'
p376
I141
sS'talked'
p377
I206
sS'box'
p378
I248
sS'boy'
p379
I739
sS'bow'
p380
I34
sS'bon'
p381
I32
sS'boo'
p382
I330
sS'teenage'
p383
I25
sS'kiddos'
p384
I109
sS'fuck'
p385
I416
sS'police'
p386
I60
sS'lunch'
p387
I865
sS'carnival'
p388
I35
sS'jumping'
p389
I55
sS'waited'
p390
I41
sS'first'
p391
I3423
sS'speaking'
p392
I95
sS'200'
p393
I58
sS'treasure'
p394
I26
sS'get'
p395
I10163
sS'gee'
p396
I27
sS'experience'
p397
I174
sS'wonder'
p398
I356
sS'august'
p399
I128
sS'tour'
p400
I121
sS'considering'
p401
I74
sS'wake'
p402
I531
sS'hardcore'
p403
I29
sS'promising'
p404
I25
sS'flavor'
p405
I26
sS"'ve"
p406
I103
sS'each'
p407
I426
sS'distracted'
p408
I30
sS'spice'
p409
I36
sS'u'
p410
I2120
sS'zero'
p411
I37
sS'karaoke'
p412
I74
sS'hour'
p413
I1123
sS'sucks'
p414
I751
sS'needs'
p415
I865
sS'acts'
p416
I28
sS'dragon'
p417
I76
sS'portland'
p418
I59
sS'sickness'
p419
I89
sS"they'll"
p420
I48
sS'toe'
p421
I78
sS'click'
p422
I131
sS'eggs'
p423
I130
sS'tuesdays'
p424
I34
sS'gunna'
p425
I281
sS'grounded'
p426
I38
sS'point'
p427
I296
sS'tennessee'
p428
I49
sS'expensive'
p429
I56
sS'corner'
p430
I90
sS'easter'
p431
I288
sS'knock'
p432
I53
sS'cloud'
p433
I75
sS'murphy'
p434
I25
sS'constant'
p435
I30
sS'cure'
p436
I73
sS'curl'
p437
I30
sS'utterly'
p438
I25
sS'cooked'
p439
I82
sS'groceries'
p440
I41
sS'entire'
p441
I274
sS'havent'
p442
I230
sS'today'
p443
I13171
sS'packing'
p444
I351
sS'healing'
p445
I38
sS'drops'
p446
I33
sS'skool'
p447
I128
sS'halloween'
p448
I477
sS'closing'
p449
I74
sS'didnt'
p450
I541
sS'holds'
p451
I49
sS'profile'
p452
I299
sS'chasing'
p453
I25
sS'report'
p454
I101
sS"ya'll"
p455
I115
sS'yard'
p456
I178
sS'whooo'
p457
I69
sS'whoop'
p458
I80
sS'whoot'
p459
I47
sS'reached'
p460
I32
sS'braces'
p461
I98
sS'have'
p462
I14559
sS'disease'
p463
I30
sS'knowledge'
p464
I45
sS'pull'
p465
I127
sS'monopoly'
p466
I33
sS'teams'
p467
I47
sS"it's"
p468
I4229
sS"it'd"
p469
I29
sS'frustrating'
p470
I40
sS'stores'
p471
I43
sS'like'
p472
I9748
sS'chick'
p473
I83
sS'hair'
p474
I1259
sS':-d'
p475
I60
sS':-p'
p476
I38
sS':-('
p477
I1800
sS':-)'
p478
I5721
sS':-/'
p479
I28
sS'socks'
p480
I72
sS'coke'
p481
I60
sS'flip'
p482
I69
sS'dyed'
p483
I59
sS'dressed'
p484
I95
sS'dresses'
p485
I51
sS'stayin'
p486
I64
sS'@'
p487
I645
sS'nail'
p488
I75
sS'kentucky'
p489
I45
sS'leaves'
p490
I175
sS'excellent'
p491
I98
sS'farmville'
p492
I104
sS'ceremony'
p493
I42
sS'salsa'
p494
I39
sS'funniest'
p495
I38
sS'detroit'
p496
I31
sS'day.'
p497
I124
sS'day!'
p498
I126
sS'dayy'
p499
I74
sS'days'
p500
I3897
sS'lovable'
p501
I32
sS'bridge'
p502
I44
sS'thoroughly'
p503
I34
sS'situations'
p504
I25
sS'minnesota'
p505
I40
sS'bed'
p506
I2587
sS'muy'
p507
I45
sS'mud'
p508
I60
sS'mug'
p509
I26
sS'finger'
p510
I119
sS'mum'
p511
I42
sS'muh'
p512
I25
sS'fault'
p513
I62
sS'prepared'
p514
I56
sS'youth'
p515
I167
sS'shortly'
p516
I35
sS'ocean'
p517
I104
sS'snowman'
p518
I34
sS'grades'
p519
I105
sS'followed'
p520
I118
sS'gave'
p521
I456
sS'breaks'
p522
I66
sS'ahh'
p523
I330
sS'[]'
p524
I28
sS'ppl'
p525
I468
sS'stuck'
p526
I407
sS'nerds'
p527
I25
sS'sometime'
p528
I175
sS'timeee'
p529
I28
sS'papers'
p530
I136
sS'picture'
p531
I376
sS'football'
p532
I433
sS'faster'
p533
I112
sS'row'
p534
I164
sS'yippee'
p535
I26
sS'irritated'
p536
I32
sS'goes'
p537
I659
sS'witch'
p538
I25
sS'figure'
p539
I270
sS'fourth'
p540
I94
sS'rollin'
p541
I25
sS'dreading'
p542
I34
sS'farewell'
p543
I25
sS'eagle'
p544
I43
sS'cards'
p545
I134
sS'havnt'
p546
I44
sS'proud'
p547
I652
sS'tron'
p548
I31
sS'cheap'
p549
I77
sS'jazz'
p550
I109
sS'jokes'
p551
I55
sS'signs'
p552
I33
sS'tues'
p553
I25
sS'cakes'
p554
I41
sS'quiet'
p555
I190
sS'period'
p556
I111
sS'turkey'
p557
I156
sS'direction'
p558
I39
sS'case'
p559
I177
sS'casa'
p560
I40
sS'cash'
p561
I66
sS'cast'
p562
I101
sS'status'
p563
I1642
sS'polish'
p564
I39
sS'tower'
p565
I31
sS'michigan'
p566
I79
sS'feliz'
p567
I69
sS'deserve'
p568
I155
sS'finale'
p569
I54
sS'finals'
p570
I385
sS'missouri'
p571
I29
sS'decisions'
p572
I47
sS'apartment'
p573
I264
sS'treating'
p574
I69
sS'cookie'
p575
I171
sS'sub'
p576
I29
sS'sun'
p577
I632
sS'sum'
p578
I126
sS'gardens'
p579
I30
sS'toes'
p580
I62
sS'charge'
p581
I56
sS'horses'
p582
I93
sS'pairs'
p583
I26
sS'antibiotics'
p584
I40
sS'cookin'
p585
I41
sS'adventure'
p586
I213
sS'cook'
p587
I177
sS'isnt'
p588
I171
sS'soccer'
p589
I287
sS'somebody'
p590
I202
sS'hill'
p591
I110
sS'story'
p592
I366
sS'gpa'
p593
I52
sS'storm'
p594
I171
sS'store'
p595
I370
sS'luckily'
p596
I64
sS'kind'
p597
I581
sS'motivation'
p598
I59
sS'lying'
p599
I53
sS'grandmas'
p600
I41
sS"mom's"
p601
I159
sS'emails'
p602
I29
sS'wrote'
p603
I141
sS'solo'
p604
I94
sS'sold'
p605
I88
sS'attention'
p606
I147
sS'flight'
p607
I124
sS'homework'
p608
I1430
sS'shirt'
p609
I172
sS'9'
p610
I399
sS'daughters'
p611
I32
sS'higher'
p612
I37
sS'try'
p613
I912
sS'questions'
p614
I197
sS'virus'
p615
I87
sS'impressed'
p616
I42
sS"hasn't"
p617
I111
sS'rally'
p618
I51
sS'rainbow'
p619
I74
sS'nice'
p620
I2257
sS'meaning'
p621
I57
sS'buffalo'
p622
I57
sS'ugh'
p623
I1272
sS'include'
p624
I27
sS'wrestling'
p625
I54
sS'reunion'
p626
I95
sS'chose'
p627
I41
sS'frog'
p628
I54
sS"<propfemale>'s"
p629
I110
sS'somethin'
p630
I96
sS'glee'
p631
I224
sS'traveling'
p632
I35
sS"night's"
p633
I50
sS'g'
p634
I74
sS'daniels'
p635
I27
sS'unknown'
p636
I35
sS'who'
p637
I4026
sS'why'
p638
I2038
sS'30pm'
p639
I31
sS'chapters'
p640
I29
sS'pleased'
p641
I52
sS'married'
p642
I178
sS'joy'
p643
I221
sS'job'
p644
I1501
sS'jog'
p645
I32
sS'april'
p646
I156
sS'warming'
p647
I29
sS'ripped'
p648
I40
sS'pasta'
p649
I48
sS'paste'
p650
I305
sS'rare'
p651
I38
sS'conclusion'
p652
I26
sS'kinds'
p653
I34
sS'kinda'
p654
I891
sS'yellow'
p655
I177
sS'miller'
p656
I59
sS'6pm'
p657
I33
sS'up!'
p658
I29
sS'spoke'
p659
I33
sS'again:)'
p660
I28
sS'successful'
p661
I106
sS'hurt'
p662
I614
sS'complaining'
p663
I59
sS'damage'
p664
I31
sS'machine'
p665
I81
sS'place'
p666
I934
sS'wins'
p667
I73
sS'keeps'
p668
I245
sS'wing'
p669
I31
sS'wind'
p670
I162
sS'wine'
p671
I209
sS'__'
p672
I47
sS'silver'
p673
I90
sS'financial'
p674
I41
sS'heading'
p675
I573
sS'legs'
p676
I187
sS'wisdom'
p677
I148
sS'responsible'
p678
I28
sS'causing'
p679
I26
sS'professor'
p680
I61
sS'bomb'
p681
I104
sS'menu'
p682
I27
sS'theme'
p683
I64
sS'midterms'
p684
I41
sS'best'
p685
I3875
sS'pirate'
p686
I41
sS'adventures'
p687
I64
sS'rangers'
p688
I25
sS'life'
p689
I4509
sS'lift'
p690
I36
sS'child'
p691
I195
sS'chili'
p692
I51
sS'babies'
p693
I252
sS'people'
p694
I4025
sS'energy'
p695
I186
sS'happy'
p696
I7245
sS'tournament'
p697
I88
sS'hungry'
p698
I325
sS'exist'
p699
I42
sS'solved'
p700
I27
sS'current'
p701
I50
sS'wherever'
p702
I35
sS'studies'
p703
I57
sS'afford'
p704
I58
sS'deserved'
p705
I31
sS'believes'
p706
I40
sS'winter'
p707
I349
sS'blasting'
p708
I60
sS'date'
p709
I597
sS'insomnia'
p710
I37
sS'bowling'
p711
I204
sS'million'
p712
I116
sS'vote'
p713
I111
sS'2'
p714
I3410
sS'future'
p715
I309
sS'tastes'
p716
I57
sS'take'
p717
I2232
sS'surgery'
p718
I227
sS'1:30'
p719
I27
sS'twin'
p720
I68
sS'breath'
p721
I109
sS'bros'
p722
I55
sS'intense'
p723
I79
sS'cheers'
p724
I39
sS'pop'
p725
I129
sS'scouts'
p726
I45
sS'act'
p727
I177
sS'parties'
p728
I106
sS'buying'
p729
I120
sS'agree'
p730
I76
sS'gone'
p731
I750
sS'ac'
p732
I55
sS'ohh'
p733
I117
sS'ad'
p734
I30
sS'ah'
p735
I382
sS'aj'
p736
I31
sS'am'
p737
I5678
sS'an'
p738
I5943
sS'ap'
p739
I181
sS'as'
p740
I4074
sS'at'
p741
I15162
sS'aw'
p742
I76
sS'az'
p743
I28
sS'a-'
p744
I44
sS'a.'
p745
I41
sS'a:'
p746
I84
sS'dressing'
p747
I27
sS'labor'
p748
I72
sS'dinosaur'
p749
I26
sS'youuu'
p750
I51
sS'beautiful'
p751
I1626
sS'accept'
p752
I82
sS'autumn'
p753
I48
sS'backyard'
p754
I55
sS'darling'
p755
I25
sS'bubba'
p756
I32
sS'imagine'
p757
I70
sS'relationship'
p758
I203
sS'obama'
p759
I31
sS'fights'
p760
I57
sS'set'
p761
I463
sS'sex'
p762
I99
sS'see'
p763
I6425
sS'sea'
p764
I90
sS'drunk'
p765
I151
sS'community'
p766
I72
sS'fun.'
p767
I44
sS'funn'
p768
I131
sS'sims'
p769
I52
sS'furniture'
p770
I56
sS'sight'
p771
I59
sS'somehow'
p772
I130
sS'anything'
p773
I1045
sS'eleven'
p774
I39
sS'nieces'
p775
I34
sS'walked'
p776
I179
sS'essay'
p777
I241
sS'results'
p778
I103
sS'send'
p779
I497
sS'sent'
p780
I271
sS'cheered'
p781
I43
sS'process'
p782
I91
sS'high'
p783
I687
sS'notebook'
p784
I36
sS'kiss'
p785
I227
sS'latest'
p786
I43
sS'owned'
p787
I25
sS'jesus'
p788
I296
sS'owner'
p789
I46
sS'painful'
p790
I67
sS'clearly'
p791
I26
sS'sorta'
p792
I62
sS"you'll"
p793
I188
sS'planted'
p794
I26
sS'hope'
p795
I3153
sS'email'
p796
I149
sS'drum'
p797
I55
sS'drug'
p798
I43
sS'co'
p799
I33
sS'ca'
p800
I51
sS'cd'
p801
I148
sS'ct'
p802
I27
sS'apologize'
p803
I33
sS'atlanta'
p804
I46
sS'laser'
p805
I26
sS'romance'
p806
I39
sS'ball'
p807
I247
sS'moments'
p808
I114
sS'realize'
p809
I262
sS'crisp'
p810
I36
sS'shoes'
p811
I242
sS'official'
p812
I227
sS'badass'
p813
I45
sS'oldest'
p814
I36
sS'drinkin'
p815
I60
sS'blanket'
p816
I81
sS'upload'
p817
I92
sS'disc'
p818
I29
sS'+'
p819
I505
sS'hmmm'
p820
I445
sS'celebration'
p821
I77
sS'smoke'
p822
I86
sS'indiana'
p823
I52
sS'chilly'
p824
I41
sS'strangers'
p825
I26
sS'forth'
p826
I39
sS'appointments'
p827
I26
sS"people's"
p828
I32
sS'festival'
p829
I136
sS'=p.'
p830
I25
sS':):):):)'
p831
I32
sS'crush'
p832
I227
sS'psych'
p833
I109
sS'requests'
p834
I50
sS'families'
p835
I61
sS'rain'
p836
I940
sS'kept'
p837
I161
sS'repost'
p838
I174
sS'adding'
p839
I34
sS'spread'
p840
I59
sS'nevermind'
p841
I26
sS'comments'
p842
I101
sS'diner'
p843
I25
sS'anime'
p844
I42
sS'r.i.p'
p845
I64
sS'together'
p846
I792
sS'reception'
p847
I26
sS'vampires'
p848
I31
sS'grape'
p849
I40
sS'zone'
p850
I49
sS'hump'
p851
I52
sS'flash'
p852
I43
sS'pays'
p853
I49
sS'change'
p854
I711
sS'live'
p855
I761
sS'jam'
p856
I80
sS'riding'
p857
I176
sS'sleeep'
p858
I80
sS'remember'
p859
I709
sS'candles'
p860
I28
sS'paramore'
p861
I30
sS'cold'
p862
I1064
sS'birds'
p863
I66
sS'window'
p864
I185
sS'half'
p865
I799
sS'hall'
p866
I105
sS'halo'
p867
I60
sS'em'
p868
I266
sS'el'
p869
I207
sS'en'
p870
I175
sS'eh'
p871
I88
sS'ex'
p872
I51
sS'ew'
p873
I32
sS'er'
p874
I123
sS'opened'
p875
I78
sS'space'
p876
I98
sS'emilyy'
p877
I27
sS'shows'
p878
I164
sS'e.'
p879
I26
sS'impossible'
p880
I70
sS'sheet'
p881
I30
sS'silent'
p882
I30
sS'cleaned'
p883
I174
sS'breakfast'
p884
I493
sS'propmale'
p885
I10457
sS'sunset'
p886
I48
sS'embrace'
p887
I29
sS'heels'
p888
I63
sS'finish'
p889
I534
sS'theater'
p890
I98
sS'touch'
p891
I222
sS'9:30'
p892
I27
sS'real'
p893
I700
sS'read'
p894
I605
sS'hectic'
p895
I36
sS'greatly'
p896
I61
sS'heater'
p897
I37
sS'2nite'
p898
I74
sS'prepare'
p899
I58
sS'sales'
p900
I52
sS'mp3'
p901
I26
sS'very'
p902
I2807
sS'psychology'
p903
I69
sS'answers'
p904
I70
sS'stuffing'
p905
I26
sS'^.^'
p906
I41
sS'overnight'
p907
I40
sS'feel'
p908
I3908
sS'fool'
p909
I70
sS'food'
p910
I1047
sS'desperately'
p911
I41
sS'since'
p912
I1204
sS'ash'
p913
I65
sS'cheering'
p914
I49
sS'juice'
p915
I123
sS'pnut'
p916
I41
sS'zumba'
p917
I50
sS'pretty'
p918
I2806
sS'gloves'
p919
I26
sS'wed'
p920
I55
sS'liked'
p921
I194
sS'battery'
p922
I62
sS'likes'
p923
I314
sS'describes'
p924
I62
sS'else'
p925
I915
sS'used'
p926
I417
sS'temporary'
p927
I25
sS'nights'
p928
I325
sS'grind'
p929
I43
sS'praying'
p930
I162
sS'havin'
p931
I195
sS'march'
p932
I113
sS'brakes'
p933
I26
sS'run'
p934
I711
sS'rub'
p935
I27
sS'rolls'
p936
I67
sS'russian'
p937
I27
sS'doesn'
p938
I118
sS'night!'
p939
I52
sS'visits'
p940
I26
sS'required'
p941
I25
sS'gf'
p942
I57
sS'ga'
p943
I38
sS'go'
p944
I9135
sS'wizard'
p945
I26
sS"g'"
p946
I27
sS'download'
p947
I41
sS'cupcakes'
p948
I92
sS'pressure'
p949
I53
sS'products'
p950
I25
sS'poetry'
p951
I45
sS'pink'
p952
I220
sS'agenda'
p953
I35
sS'pure'
p954
I65
sS'changed'
p955
I230
sS'attack'
p956
I99
sS'bet'
p957
I119
sS'anyway'
p958
I309
sS'she'
p959
I2972
sS'written'
p960
I71
sS'horrible'
p961
I308
sS'neither'
p962
I41
sS'precious'
p963
I86
sS'brunch'
p964
I33
sS'lately'
p965
I188
sS'woman'
p966
I209
sS'kick'
p967
I329
sS'sonic'
p968
I51
sS'fate'
p969
I26
sS'inner'
p970
I39
sS'limit'
p971
I34
sS'meteor'
p972
I40
sS'jamming'
p973
I25
sS'up.'
p974
I30
sS'ups'
p975
I99
sS'upp'
p976
I51
sS'9pm'
p977
I33
sS'never'
p978
I2105
sS'piercing'
p979
I42
sS'tell'
p980
I1210
sS'give'
p981
I1076
sS'euphonium'
p982
I30
sS'soaking'
p983
I26
sS'taught'
p984
I78
sS'grease'
p985
I25
sS'ish'
p986
I67
sS'isn'
p987
I44
sS'loud'
p988
I124
sS'hook'
p989
I51
sS'hood'
p990
I74
sS'packed'
p991
I125
sS'matter'
p992
I449
sS'es'
p993
I98
sS'stop'
p994
I961
sS'picking'
p995
I149
sS'sunshine'
p996
I234
sS'near'
p997
I149
sS'iz'
p998
I46
sS'is'
p999
I31951
sS'it'
p1000
I22481
sS'iv'
p1001
I41
sS'ii'
p1002
I107
sS'im'
p1003
I5762
sS'il'
p1004
I34
sS'in'
p1005
I24957
sS'id'
p1006
I187
sS'if'
p1007
I6789
sS'bottles'
p1008
I28
sS'i,'
p1009
I33
sS'i.'
p1010
I59
sS'-post'
p1011
I57
sS'burn'
p1012
I134
sS'pair'
p1013
I92
sS'fireworks'
p1014
I205
sS'daddy'
p1015
I373
sS'sticks'
p1016
I50
sS'dies'
p1017
I31
sS'diet'
p1018
I68
sS'died'
p1019
I334
sS'assume'
p1020
I26
sS'skip'
p1021
I60
sS'skin'
p1022
I88
sS'answered'
p1023
I30
sS'string'
p1024
I33
sS'accidentally'
p1025
I47
sS'ridin'
p1026
I30
sS'till'
p1027
I1522
sS'sunday'
p1028
I880
sS'guys'
p1029
I1550
sS'maybe'
p1030
I1434
sS'cute'
p1031
I962
sS'cuts'
p1032
I31
sS'smoothie'
p1033
I37
sS'tomorow'
p1034
I81
sS'texas'
p1035
I229
sS'killer'
p1036
I76
sS'sooner'
p1037
I73
sS'killed'
p1038
I157
sS'language'
p1039
I73
sS'lexi'
p1040
I39
sS'gotta'
p1041
I1427
sS'were'
p1042
I1784
sS'killing'
p1043
I187
sS'according'
p1044
I74
sS'jk'
p1045
I161
sS'arts'
p1046
I61
sS'>_<'
p1047
I38
sS'those'
p1048
I1336
sS'middle'
p1049
I259
sS'sami'
p1050
I37
sS'same'
p1051
I817
sS'roommate'
p1052
I69
sS'wifey'
p1053
I45
sS'cancer'
p1054
I90
sS'hopin'
p1055
I32
sS'blankets'
p1056
I37
sS'nose'
p1057
I190
sS'l'
p1058
I65
sS'<3<3<3'
p1059
I32
sS'gross'
p1060
I51
sS'awsome'
p1061
I151
sS'broken'
p1062
I272
sS'mornings'
p1063
I70
sS'fricken'
p1064
I28
sS'belated'
p1065
I28
sS'strawberry'
p1066
I95
sS'girlfriend'
p1067
I217
sS'lifetime'
p1068
I52
sS'field'
p1069
I190
sS'offered'
p1070
I30
sS'obsessed'
p1071
I39
sS'students'
p1072
I133
sS'starting'
p1073
I774
sS'imma'
p1074
I188
sS'scout'
p1075
I49
sS'search'
p1076
I60
sS'none'
p1077
I111
sS'compare'
p1078
I27
sS'blood'
p1079
I319
sS'coat'
p1080
I39
sS'dough'
p1081
I51
sS'walls'
p1082
I60
sS'suprise'
p1083
I26
sS'idea'
p1084
I392
sS'insurance'
p1085
I56
sS'goodies'
p1086
I26
sS'weigh'
p1087
I28
sS'nervous'
p1088
I192
sS'cheaper'
p1089
I25
sS'individual'
p1090
I25
sS'n(=t0\xa1'
p1091
I34
sS'throughout'
p1092
I45
sS'create'
p1093
I39
sS'panera'
p1094
I28
sS'understand'
p1095
I254
sS'moment'
p1096
I369
sS'y'
p1097
I330
sS'chemistry'
p1098
I115
sS'>.>'
p1099
I32
sS'>.<'
p1100
I98
sS'excited'
p1101
I2852
sS'matters'
p1102
I52
sS'pet'
p1103
I93
sS'pep'
p1104
I46
sS'per'
p1105
I63
sS'pee'
p1106
I35
sS'beans'
p1107
I62
sS'homemade'
p1108
I175
sS'forward'
p1109
I1058
sS'fun:)'
p1110
I46
sS'kickin'
p1111
I48
sS'lunar'
p1112
I34
sS'11:30'
p1113
I28
sS'knight'
p1114
I26
sS'seconds'
p1115
I137
sS'cleanin'
p1116
I45
sS'mannn'
p1117
I29
sS'ashamed'
p1118
I27
sS'addiction'
p1119
I42
sS'hugged'
p1120
I57
sS"don't."
p1121
I34
sS'red'
p1122
I501
sS're-'
p1123
I32
sS'light'
p1124
I310
sS'eight'
p1125
I53
sS'5pm'
p1126
I33
sS'national'
p1127
I115
sS'legit'
p1128
I66
sS'passing'
p1129
I69
sS'glorious'
p1130
I45
sS'laugh'
p1131
I449
sS'flew'
p1132
I48
sS'center'
p1133
I130
sS'oops'
p1134
I52
sS'seats'
p1135
I26
sS'work.'
p1136
I35
sS'works'
p1137
I331
sS'grrr'
p1138
I259
sS'buy'
p1139
I502
sS'bus'
p1140
I265
sS'but'
p1141
I13209
sS'bum'
p1142
I48
sS'bug'
p1143
I118
sS'minutes'
p1144
I530
sS'pride'
p1145
I69
sS'semi'
p1146
I35
sS'every'
p1147
I1231
sS'street'
p1148
I185
sS'disney'
p1149
I178
sS'varsity'
p1150
I42
sS'me'
p1151
I18735
sS'mo'
p1152
I39
sS'mi'
p1153
I321
sS'mt'
p1154
I34
sS'ms'
p1155
I124
sS'my'
p1156
I41810
sS'joyous'
p1157
I26
sS'end'
p1158
I1060
sS'enter'
p1159
I33
sS'using'
p1160
I237
sS'fall'
p1161
I735
sS':(,'
p1162
I30
sS'filling'
p1163
I40
sS'victory'
p1164
I41
sS'goo'
p1165
I26
sS'god'
p1166
I1881
sS'got'
p1167
I10282
sS'already'
p1168
I1491
sS'too!'
p1169
I28
sS'too.'
p1170
I31
sS'rockin'
p1171
I53
sS'tooo'
p1172
I60
sS'tool'
p1173
I29
sS'serve'
p1174
I35
sS'took'
p1175
I923
sS'talking'
p1176
I596
sS'stood'
p1177
I29
sS'geez'
p1178
I28
sS'geek'
p1179
I45
sS'uhhh'
p1180
I44
sS'aquarium'
p1181
I36
sS'teachers'
p1182
I104
sS'several'
p1183
I94
sS'"-'
p1184
I30
sS'".'
p1185
I144
sS'apart'
p1186
I146
sS'gift'
p1187
I248
sS'ice'
p1188
I658
sS'christmas'
p1189
I2272
sS'sept'
p1190
I32
sS'law'
p1191
I149
sS'head'
p1192
I1163
sS'heal'
p1193
I39
sS'hear'
p1194
I492
sS'adore'
p1195
I39
sS'bake'
p1196
I83
sS'options'
p1197
I25
sS'cinnamon'
p1198
I61
sS'combo'
p1199
I25
sS'chocolate'
p1200
I597
sS'dropped'
p1201
I123
sS'worship'
p1202
I54
sS'wasting'
p1203
I27
sS'conversations'
p1204
I81
sS'opera'
p1205
I49
sS'pokemon'
p1206
I60
sS'convention'
p1207
I36
sS'hun'
p1208
I41
sS'r'
p1209
I423
sS'considered'
p1210
I32
sS"80's"
p1211
I35
sS'freaking'
p1212
I352
sS'fails'
p1213
I35
sS'pole'
p1214
I25
sS'swift'
p1215
I48
sS'hardly'
p1216
I75
sS'paying'
p1217
I85
sS'life!'
p1218
I30
sS'life.'
p1219
I43
sS'shifts'
p1220
I31
sS'scheduled'
p1221
I46
sS'ivvc'
p1222
I27
sS'cowboys'
p1223
I47
sS"o'"
p1224
I59
sS'goofy'
p1225
I54
sS'update'
p1226
I165
sS'on'
p1227
I16752
sS'ok'
p1228
I1087
sS'oh'
p1229
I3138
sS'of'
p1230
I24375
sS'oc'
p1231
I29
sS'oz'
p1232
I55
sS'ow'
p1233
I41
sS'communication'
p1234
I29
sS'everyone'
p1235
I4532
sS'jus'
p1236
I299
sS'applying'
p1237
I33
sS'beds'
p1238
I28
sS'program'
p1239
I121
sS'presentation'
p1240
I73
sS'rate'
p1241
I180
sS'design'
p1242
I43
sS'deeply'
p1243
I33
sS'guns'
p1244
I46
sS'andrews'
p1245
I25
sS'sticking'
p1246
I25
sS'thankfully'
p1247
I58
sS'texts'
p1248
I101
sS'textt'
p1249
I26
sS'tryna'
p1250
I46
sS'inch'
p1251
I39
sS'bigger'
p1252
I103
sS'paradise'
p1253
I30
sS'teach'
p1254
I115
sS'pains'
p1255
I32
sS'$5'
p1256
I47
sS'tommorow'
p1257
I163
sS'b'
p1258
I462
sS'procrastination'
p1259
I47
sS'activity'
p1260
I79
sS'watchin'
p1261
I343
sS'succeed'
p1262
I51
sS'license'
p1263
I125
sS'bangs'
p1264
I39
sS'fucking'
p1265
I296
sS'volunteering'
p1266
I42
sS"we're"
p1267
I461
sS'mountains'
p1268
I64
sS'ke'
p1269
I27
sS'drinking'
p1270
I277
sS'cozy'
p1271
I50
sS'pushing'
p1272
I36
sS'something'
p1273
I1947
sS'summers'
p1274
I26
sS'united'
p1275
I32
sS'swear'
p1276
I151
sS'permanent'
p1277
I27
sS'orange'
p1278
I190
sS'*'
p1279
I1254
sS'boring'
p1280
I346
sS'asshole'
p1281
I26
sS'='
p1282
I1298
sS'planning'
p1283
I186
sS'q:'
p1284
I72
sS'brain'
p1285
I184
sS'respect'
p1286
I59
sS'ave'
p1287
I28
sS'definately'
p1288
I82
sS'beast'
p1289
I90
sS'fishing'
p1290
I114
sS'now'
p1291
I10641
sS'tryouts'
p1292
I39
sS'loser'
p1293
I51
sS'owl'
p1294
I43
sS'own'
p1295
I687
sS'owe'
p1296
I42
sS'fundraiser'
p1297
I29
sS'appt'
p1298
I54
sS'apps'
p1299
I53
sS'record'
p1300
I116
sS'raining'
p1301
I224
sS'four'
p1302
I389
sS'thunder'
p1303
I112
sS'skyview'
p1304
I26
sS'k'
p1305
I125
sS">'s"
p1306
I1928
sS'easier'
p1307
I129
sS'schools'
p1308
I71
sS'series'
p1309
I108
sS'tomorrow'
p1310
I7691
sS'basketball'
p1311
I219
sS'crawl'
p1312
I53
sS'well.'
p1313
I34
sS'doors'
p1314
I49
sS'camp'
p1315
I397
sS'came'
p1316
I927
sS'rings'
p1317
I46
sS'yogurt'
p1318
I41
sS'country'
p1319
I232
sS'planned'
p1320
I142
sS'excited!'
p1321
I54
sS'excited.'
p1322
I36
sS'worked'
p1323
I313
sS'shift'
p1324
I193
sS'truely'
p1325
I36
sS'livin'
p1326
I60
sS'previous'
p1327
I33
sS'son'
p1328
I278
sS'soy'
p1329
I39
sS'sox'
p1330
I31
sS'support'
p1331
I229
sS'inside'
p1332
I318
sS'skate'
p1333
I46
sS'pen'
p1334
I28
sS'icing'
p1335
I25
sS'settle'
p1336
I40
sS'sign'
p1337
I164
sS'understanding'
p1338
I45
sS'fake'
p1339
I102
sS'angry'
p1340
I131
sS'wicked'
p1341
I72
sS'pretend'
p1342
I62
sS'pumpkin'
p1343
I146
sS'allowed'
p1344
I71
sS'st'
p1345
I281
sS'si'
p1346
I72
sS'so'
p1347
I19439
sS'sn'
p1348
I65
sS'sa'
p1349
I28
sS'sf'
p1350
I43
sS'se'
p1351
I102
sS'torn'
p1352
I35
sS'open'
p1353
I525
sS'lawn'
p1354
I45
sS'laws'
p1355
I26
sS'assistant'
p1356
I28
sS'anyways'
p1357
I230
sS'many'
p1358
I1237
sS'caring'
p1359
I61
sS'ive'
p1360
I394
sS'(i'
p1361
I170
sS'trenedy'
p1362
I25
sS'(:'
p1363
I310
sS'starving'
p1364
I36
sS'around'
p1365
I1737
sS'(<'
p1366
I157
sS'lobster'
p1367
I55
sS'memories'
p1368
I345
sS'transformers'
p1369
I39
sS'internship'
p1370
I41
sS'her'
p1371
I5328
sS'hes'
p1372
I159
sS'handsome'
p1373
I52
sS'mask'
p1374
I25
sS'call'
p1375
I1193
sS'6'
p1376
I696
sS'waves'
p1377
I40
sS'refuse'
p1378
I36
sS'wrk'
p1379
I51
sS'sucked'
p1380
I145
sS'found'
p1381
I1312
sS'castle'
p1382
I57
sS'guess'
p1383
I1558
sS'guest'
p1384
I35
sS'jet'
p1385
I41
sS'giving'
p1386
I290
sS'spirits'
p1387
I30
sS'races'
p1388
I28
sS'packers'
p1389
I69
sS'swim'
p1390
I181
sS'tomorro'
p1391
I35
sS'd'
p1392
I126
sS'continue'
p1393
I142
sS'partying'
p1394
I55
sS'spring'
p1395
I607
sS'curious'
p1396
I41
sS'blackberry'
p1397
I53
sS'colorado'
p1398
I92
sS'u,'
p1399
I35
sS'u.'
p1400
I27
sS'suit'
p1401
I46
sS'u!'
p1402
I38
sS'inches'
p1403
I173
sS't-shirt'
p1404
I27
sS'up'
p1405
I9947
sS'us'
p1406
I1346
sS'ur'
p1407
I623
sS'um'
p1408
I89
sS'uh'
p1409
I99
sS'comming'
p1410
I39
sS'fixing'
p1411
I52
sS'holes'
p1412
I27
sS'fresh'
p1413
I185
sS'race'
p1414
I163
sS'everythings'
p1415
I25
sS'graduating'
p1416
I59
sS'casino'
p1417
I38
sS'holmes'
p1418
I31
sS'delay'
p1419
I74
sS'move'
p1420
I528
sS'2011'
p1421
I306
sS'2010'
p1422
I351
sS'saving'
p1423
I57
sS'put'
p1424
I1519
sS'bother'
p1425
I57
sS'hangover'
p1426
I52
sS'waffles'
p1427
I45
sS'*<'
p1428
I32
sS'painting'
p1429
I177
sS'oreos'
p1430
I33
sS'bring'
p1431
I574
sS'should'
p1432
I2409
sS'ends'
p1433
I118
sS'invited'
p1434
I73
sS'wth'
p1435
I48
sS'spain'
p1436
I64
sS'insanely'
p1437
I26
sS'sherlock'
p1438
I27
sS'</3'
p1439
I55
sS'drink'
p1440
I344
sS'checking'
p1441
I69
sS'cedar'
p1442
I35
sS'nerves'
p1443
I37
sS'blowing'
p1444
I46
sS'eastern'
p1445
I29
sS'bike'
p1446
I211
sS'eventually'
p1447
I81
sS'daughter'
p1448
I275
sS'me:('
p1449
I35
sS'me:)'
p1450
I126
sS'veggies'
p1451
I33
sS'interview'
p1452
I376
sS'beach'
p1453
I870
sS'after'
p1454
I2642
sS'salon'
p1455
I49
sS'japan'
p1456
I79
sS'woken'
p1457
I27
sS'pjs'
p1458
I28
sS'rocks'
p1459
I138
sS'lifted'
p1460
I32
sS'created'
p1461
I53
sS'thick'
p1462
I39
sS'messing'
p1463
I38
sS'minus'
p1464
I74
sS'anatomy'
p1465
I93
sS'voting'
p1466
I25
sS'personality'
p1467
I66
sS'w/'
p1468
I553
sS'we'
p1469
I6382
sS'terms'
p1470
I25
sS'eventful'
p1471
I61
sS'fest'
p1472
I104
sS'air'
p1473
I257
sS'aim'
p1474
I42
sS'aid'
p1475
I58
sS'arent'
p1476
I49
sS'contact'
p1477
I145
sS'gods'
p1478
I36
sS'board'
p1479
I112
sS'retreat'
p1480
I65
sS'tonight!'
p1481
I45
sS'/'
p1482
I272
sS'beating'
p1483
I36
sS'trees'
p1484
I98
sS'phew'
p1485
I38
sS'bound'
p1486
I118
sS'old'
p1487
I1591
sS'appear'
p1488
I30
sS'coloring'
p1489
I45
sS'homecoming'
p1490
I264
sS'prove'
p1491
I42
sS'car'
p1492
I1419
sS'cat'
p1493
I314
sS'can'
p1494
I7249
sS'cal'
p1495
I29
sS'clothing'
p1496
I27
sS'january'
p1497
I84
sS'happen'
p1498
I457
sS':(:('
p1499
I28
sS'card'
p1500
I231
sS'care'
p1501
I825
sS'british'
p1502
I31
sS'message'
p1503
I500
sS'drove'
p1504
I129
sS'checked'
p1505
I73
sS'wolf'
p1506
I27
sS'price'
p1507
I78
sS']'
p1508
I192
sS'forever'
p1509
I613
sS'maine'
p1510
I39
sS'icecream'
p1511
I40
sS'saints'
p1512
I75
sS'asleep'
p1513
I403
sS'blame'
p1514
I61
sS'sadly'
p1515
I95
sS'2pm'
p1516
I36
sS'applebees'
p1517
I35
sS'rules'
p1518
I61
sS'listening'
p1519
I803
sS'ewww'
p1520
I43
sS'throw'
p1521
I155
sS'jenn'
p1522
I37
sS'sadness'
p1523
I44
sS'tengo'
p1524
I36
sS'statuses'
p1525
I39
sS':('
p1526
I29104
sS'him.'
p1527
I29
sS'loose'
p1528
I48
sS'toys'
p1529
I75
sS'yuck'
p1530
I68
sS'offically'
p1531
I55
sS'history'
p1532
I329
sS'sneak'
p1533
I26
sS'sooo'
p1534
I2523
sS'held'
p1535
I68
sS'yo'
p1536
I185
sS"you've"
p1537
I249
sS'yr'
p1538
I75
sS'sundays'
p1539
I65
sS'stopped'
p1540
I141
sS'issue'
p1541
I29
sS'reason'
p1542
I505
sS'banana'
p1543
I101
sS'experienced'
p1544
I29
sS'experiences'
p1545
I34
sS'17th'
p1546
I35
sS'grew'
p1547
I41
sS'potential'
p1548
I37
sS'steelers'
p1549
I99
sS'toward'
p1550
I25
sS'secrets'
p1551
I37
sS'woke'
p1552
I801
sS'look'
p1553
I1324
sS'loop'
p1554
I26
sS'tests'
p1555
I145
sS'reads'
p1556
I25
sS'ready'
p1557
I2714
sS'11pm'
p1558
I26
sS'saturdays'
p1559
I38
sS'delivered'
p1560
I26
sS'step'
p1561
I188
sS'lasts'
p1562
I51
sS'ache'
p1563
I85
sS'hired'
p1564
I26
sS'shiny'
p1565
I35
sS'nonsense'
p1566
I25
sS'.)'
p1567
I79
sS'.,'
p1568
I28
sS'.!'
p1569
I96
sS".'"
p1570
I27
sS'.]'
p1571
I87
sS'uber'
p1572
I48
sS'honors'
p1573
I61
sS'sausage'
p1574
I28
sS'poke'
p1575
I184
sS'commercial'
p1576
I45
sS'wif'
p1577
I29
sS'win'
p1578
I464
sS'wii'
p1579
I154
sS'wit'
p1580
I486
sS'started'
p1581
I679
sS'crossed'
p1582
I110
sS'wonderful'
p1583
I1712
sS'engineering'
p1584
I26
sS'shaking'
p1585
I31
sS'confess'
p1586
I25
sS'completely'
p1587
I382
sS'shrek'
p1588
I29
sS'such'
p1589
I1416
sS'management'
p1590
I29
sS'close'
p1591
I467
sS'lip'
p1592
I52
sS'camper'
p1593
I51
sS'mocha'
p1594
I36
sS'based'
p1595
I37
sS'tire'
p1596
I77
sS'bestest'
p1597
I165
sS'wish'
p1598
I2382
sS'driveway'
p1599
I35
sS'supernatural'
p1600
I41
sS'grr'
p1601
I81
sS'kings'
p1602
I49
sS'yay'
p1603
I2904
sS'slowly'
p1604
I113
sS"ya'"
p1605
I30
sS'bucks'
p1606
I118
sS'strange'
p1607
I101
sS'well'
p1608
I5003
sS'welp'
p1609
I40
sS'gonna'
p1610
I3825
sS'puppies'
p1611
I99
sS'tongue'
p1612
I45
sS'turtle'
p1613
I47
sS'stories'
p1614
I74
sS'whose'
p1615
I63
sS'lehigh'
p1616
I33
sS'wreck'
p1617
I33
sS"tonight's"
p1618
I45
sS'102'
p1619
I26
sS'100'
p1620
I318
sS'101'
p1621
I27
sS'economics'
p1622
I35
sS'credit'
p1623
I96
sS'pack'
p1624
I205
sS'adult'
p1625
I39
sS'president'
p1626
I32
sS'therapy'
p1627
I75
sS'meat'
p1628
I45
sS'bone'
p1629
I40
sS'mean'
p1630
I580
sS'navy'
p1631
I40
sS'distance'
p1632
I50
sS'mini'
p1633
I126
sS'mind'
p1634
I855
sS'mine'
p1635
I456
sS'mint'
p1636
I37
sS'regular'
p1637
I76
sS'explain'
p1638
I64
sS'sugar'
p1639
I110
sS'decides'
p1640
I35
sS'fluffy'
p1641
I35
sS'decided'
p1642
I503
sS'00'
p1643
I56
sS'pets'
p1644
I33
sS'against'
p1645
I226
sS'path'
p1646
I44
sS'loaded'
p1647
I26
sS'san'
p1648
I215
sS'website'
p1649
I86
sS'mouse'
p1650
I60
sS'belly'
p1651
I97
sS'garlic'
p1652
I37
sS'kid'
p1653
I394
sS'aside'
p1654
I38
sS'human'
p1655
I159
sS'character'
p1656
I59
sS'performing'
p1657
I35
sS'popular'
p1658
I26
sS'ribs'
p1659
I53
sS'valentines'
p1660
I196
sS'carving'
p1661
I31
sS'aunts'
p1662
I36
sS'potato'
p1663
I50
sS'choir'
p1664
I210
sS"it'll"
p1665
I159
sS'mr'
p1666
I307
sS'dude'
p1667
I192
sS'mas'
p1668
I59
sS'mad'
p1669
I385
sS'mah'
p1670
I66
sS'man'
p1671
I1533
sS'tall'
p1672
I55
sS'talk'
p1673
I1027
sS'wishing'
p1674
I293
sS'rock'
p1675
I421
sS'gonzalez'
p1676
I25
sS'gots'
p1677
I133
sS'cough'
p1678
I129
sS'advance'
p1679
I32
sS'thing'
p1680
I1791
sS'think'
p1681
I4252
sS'crib'
p1682
I33
sS'sounds'
p1683
I385
sS'cheesy'
p1684
I34
sS'eyes'
p1685
I403
sS'cheesecake'
p1686
I79
sS'shop'
p1687
I198
sS'shot'
p1688
I185
sS'nearly'
p1689
I106
sS'6:30'
p1690
I45
sS'speech'
p1691
I158
sS'oil'
p1692
I85
sS'climbing'
p1693
I48
sS'money'
p1694
I693
sS'yaaay'
p1695
I74
sS'o.o'
p1696
I87
sS'blessed'
p1697
I569
sS'strip'
p1698
I25
sS'4:30'
p1699
I51
sS'downstairs'
p1700
I31
sS'romantic'
p1701
I28
sS'deer'
p1702
I44
sS'deep'
p1703
I153
sS'general'
p1704
I84
sS'drivers'
p1705
I80
sS'effin'
p1706
I36
sS'tireddd'
p1707
I25
sS'gon'
p1708
I31
sS'decorated'
p1709
I35
sS'alright'
p1710
I279
sS'bible'
p1711
I94
sS"sister's"
p1712
I60
sS'eye'
p1713
I259
sS'two'
p1714
I2032
sS'pocket'
p1715
I61
sS'paragraph'
p1716
I31
sS'ensemble'
p1717
I25
sS'playing'
p1718
I986
sS'suffer'
p1719
I27
sS'24'
p1720
I251
sS'25'
p1721
I150
sS'26'
p1722
I60
sS'27'
p1723
I77
sS'20'
p1724
I443
sS'21'
p1725
I199
sS'22'
p1726
I132
sS'28'
p1727
I69
sS'29'
p1728
I55
sS'2:'
p1729
I65
sS'2!'
p1730
I27
sS'2,'
p1731
I55
sS'2.'
p1732
I189
sS'2)'
p1733
I62
sS'complain'
p1734
I78
sS'drake'
p1735
I40
sS'print'
p1736
I34
sS'disneyland'
p1737
I104
sS'members'
p1738
I71
sS'dont'
p1739
I2017
sS'done'
p1740
I2890
sS'para'
p1741
I81
sS'park'
p1742
I537
sS'dentist'
p1743
I127
sS'part'
p1744
I723
sS'recording'
p1745
I38
sS'majority'
p1746
I26
sS'becca'
p1747
I50
sS'waitin'
p1748
I110
sS'extremely'
p1749
I212
sS'ruin'
p1750
I79
sS'unhappy'
p1751
I37
sS'contagious'
p1752
I46
sS'common'
p1753
I62
sS'fans'
p1754
I73
sS'danced'
p1755
I54
sS'dropping'
p1756
I45
sS'gay'
p1757
I133
sS'gah'
p1758
I93
sS'wedding'
p1759
I408
sS'replaced'
p1760
I41
sS'aches'
p1761
I29
sS'purpose'
p1762
I41
sS'mirror'
p1763
I46
sS'ufc'
p1764
I34
sS'lesson'
p1765
I155
sS"'re"
p1766
I636
sS';d'
p1767
I96
sS'ddd'
p1768
I54
sS'payday'
p1769
I53
sS'blizzard'
p1770
I45
sS'trail'
p1771
I49
sS'iii'
p1772
I33
sS'account'
p1773
I115
sS'obvious'
p1774
I30
sS'favorite'
p1775
I1070
sS'psyched'
p1776
I30
sS'lame'
p1777
I164
sS'9am'
p1778
I37
sS'kindergarten'
p1779
I31
sS'willing'
p1780
I106
sS'spell'
p1781
I60
sS'tubing'
p1782
I43
sS'math'
p1783
I374
sS'completed'
p1784
I73
sS'visited'
p1785
I47
sS'normally'
p1786
I50
sS'inspiring'
p1787
I26
sS'nightmares'
p1788
I34
sS'swallow'
p1789
I25
sS'proposal'
p1790
I26
sS'bull'
p1791
I53
sS'someones'
p1792
I39
sS'wachin'
p1793
I42
sS'although'
p1794
I187
sS'actual'
p1795
I82
sS'biggest'
p1796
I95
sS'campus'
p1797
I128
sS'4:'
p1798
I60
sS'48'
p1799
I49
sS'45'
p1800
I111
sS'42'
p1801
I32
sS'40'
p1802
I145
sS'4.'
p1803
I139
sS'4,'
p1804
I28
sS'4)'
p1805
I29
sS'entertainment'
p1806
I41
sS'fabulous'
p1807
I175
sS'hospital'
p1808
I298
sS'ut'
p1809
I25
sS'aching'
p1810
I31
sS'london'
p1811
I50
sS'potatoes'
p1812
I97
sS'fitness'
p1813
I32
sS'hehe'
p1814
I55
sS'onto'
p1815
I137
sS'hearing'
p1816
I103
sS'urban'
p1817
I32
sS'ankle'
p1818
I103
sS'greatest'
p1819
I223
sS'pineapple'
p1820
I31
sS'campbell'
p1821
I30
sS'noodles'
p1822
I51
sS'weak'
p1823
I43
sS'wear'
p1824
I283
sS'trust'
p1825
I152
sS"would've"
p1826
I42
sS'savings'
p1827
I27
sS'alabama'
p1828
I52
sS'teenager'
p1829
I31
sS'hunt'
p1830
I92
sS'plus'
p1831
I370
sS'dayyy'
p1832
I60
sS'spongebob'
p1833
I49
sS'wireless'
p1834
I58
sS':)~'
p1835
I51
sS':)?'
p1836
I53
sS':)"'
p1837
I1621
sS':)!'
p1838
I160
sS':).'
p1839
I559
sS':),'
p1840
I123
sS'focus'
p1841
I91
sS'cool'
p1842
I974
sS'hawaii'
p1843
I91
sS'cord'
p1844
I32
sS'pedi'
p1845
I25
sS'healthy'
p1846
I128
sS'iphone'
p1847
I117
sS'leavin'
p1848
I54
sS'crashed'
p1849
I54
sS'liquid'
p1850
I28
sS'manana'
p1851
I32
sS'lonely'
p1852
I201
sS'name'
p1853
I712
sS'soon.'
p1854
I44
sS'soon!'
p1855
I35
sS'tuned'
p1856
I25
sS'obsession'
p1857
I28
sS'oklahoma'
p1858
I48
sS'calories'
p1859
I25
sS'butterflies'
p1860
I40
sS'plane'
p1861
I120
sS'swing'
p1862
I77
sS'childhood'
p1863
I111
sS'cops'
p1864
I38
sS'copy'
p1865
I554
sS'rent'
p1866
I51
sS'marathon'
p1867
I200
sS'heat'
p1868
I150
sS'nightmare'
p1869
I58
sS'duty'
p1870
I97
sS'pot'
p1871
I93
sS'por'
p1872
I73
sS'6.'
p1873
I84
sS'60'
p1874
I64
sS'poo'
p1875
I52
sS'69'
p1876
I30
sS'6:'
p1877
I63
sS'500'
p1878
I61
sS'blessing'
p1879
I93
sS'tiger'
p1880
I39
sS'careful'
p1881
I32
sS'cartoon'
p1882
I68
sS'ranch'
p1883
I33
sS'nc'
p1884
I60
sS'halfway'
p1885
I41
sS'kills'
p1886
I33
sS'cell'
p1887
I279
sS'sanity'
p1888
I32
sS'1am'
p1889
I29
sS'shrimp'
p1890
I42
sS'stand'
p1891
I239
sS'ladies'
p1892
I234
sS'hasnt'
p1893
I43
sS'all'
p1894
I12774
sS'thursday'
p1895
I533
sS'awful'
p1896
I125
sS'roomie'
p1897
I57
sS'minor'
p1898
I44
sS'basically'
p1899
I97
sS'v'
p1900
I52
sS'court'
p1901
I98
sS'goal'
p1902
I147
sS'algebra'
p1903
I64
sS'softball'
p1904
I177
sS'style'
p1905
I92
sS'pray'
p1906
I321
sS'friendship'
p1907
I125
sS'expect'
p1908
I108
sS'prolly'
p1909
I83
sS'wondered'
p1910
I33
sS'reallly'
p1911
I62
sS'feed'
p1912
I96
sS'feet'
p1913
I286
sS'hotel'
p1914
I155
sS'nightt'
p1915
I29
sS'nighty'
p1916
I79
sS'night.'
p1917
I48
sS'outfit'
p1918
I48
sS'loveee'
p1919
I56
sS'holidays'
p1920
I158
sS'weird'
p1921
I410
sS'cheer'
p1922
I214
sS'better:)'
p1923
I31
sS'wonderland'
p1924
I84
sS'wanna'
p1925
I1713
sS'mommy'
p1926
I501
sS'momma'
p1927
I163
sS'highlight'
p1928
I43
sS'blahh'
p1929
I29
sS'problems'
p1930
I148
sS'helping'
p1931
I265
sS'lower'
p1932
I42
sS'prep'
p1933
I41
sS'bittersweet'
p1934
I25
sS'sis'
p1935
I314
sS'sit'
p1936
I269
sS'six'
p1937
I226
sS'sin'
p1938
I44
sS'scrubs'
p1939
I26
sS'worlds'
p1940
I34
sS'8.'
p1941
I59
sS'8:'
p1942
I49
sS'85'
p1943
I27
sS'ipod'
p1944
I316
sS'river'
p1945
I137
sS'movin'
p1946
I30
sS'up:)'
p1947
I31
sS'frustrated'
p1948
I57
sS'wall'
p1949
I439
sS'walk'
p1950
I694
sS'crappy'
p1951
I177
sS'education'
p1952
I58
sS'gets'
p1953
I762
sS'attractive'
p1954
I37
sS'sophomore'
p1955
I27
sS'devil'
p1956
I54
sS'stay'
p1957
I798
sS'universe'
p1958
I67
sS'yankee'
p1959
I26
sS'kidding'
p1960
I77
sS'made'
p1961
I2913
sS'temp'
p1962
I42
sS'whether'
p1963
I104
sS"friend's"
p1964
I45
sS'>:("'
p1965
I28
sS'lord'
p1966
I353
sS'now:)'
p1967
I38
sS'bacon'
p1968
I97
sS'tires'
p1969
I41
sS'second'
p1970
I536
sS'fingers'
p1971
I230
sS'hero'
p1972
I109
sS'here'
p1973
I3335
sS'holy'
p1974
I164
sS'hole'
p1975
I76
sS'hoo'
p1976
I67
sS'how'
p1977
I4491
sS'hop'
p1978
I58
sS'hoy'
p1979
I40
sS'beauty'
p1980
I132
sS'r.i.p.'
p1981
I101
sS"today's"
p1982
I120
sS'bitter'
p1983
I32
sS'pneumonia'
p1984
I27
sS'hug'
p1985
I237
sS'huh'
p1986
I68
sS'busy'
p1987
I737
sS'bust'
p1988
I35
sS'bush'
p1989
I28
sS'touched'
p1990
I33
sS'release'
p1991
I42
sS'result'
p1992
I43
sS'wtf'
p1993
I202
sS'accident'
p1994
I70
sS'asked'
p1995
I241
sS'30th'
p1996
I32
sS'pro'
p1997
I52
sS'played'
p1998
I370
sS'player'
p1999
I98
sS'thingy'
p2000
I66
sS'things'
p2001
I2333
sS'any'
p2002
I1701
sS'tune'
p2003
I28
sS"someone's"
p2004
I47
sS'easy'
p2005
I329
sS'east'
p2006
I81
sS'creative'
p2007
I76
sS'o'
p2008
I390
sS'slightly'
p2009
I84
sS'offer'
p2010
I56
sS'notifications'
p2011
I26
sS'floor'
p2012
I236
sS'smell'
p2013
I200
sS'rolling'
p2014
I55
sS'time'
p2015
I9459
sS':-'
p2016
I114
sS':/'
p2017
I635
sS':)'
p2018
I103096
sS':*'
p2019
I28
sS':3'
p2020
I54
sS':o'
p2021
I107
sS':d'
p2022
I2340
sS':|'
p2023
I28
sS':p'
p2024
I944
sS':]'
p2025
I86
sS'rents'
p2026
I27
sS'grandparents'
p2027
I107
sS'funeral'
p2028
I54
sS'alone'
p2029
I510
sS'along'
p2030
I370
sS'nowhere'
p2031
I51
sS'prefer'
p2032
I30
sS'homesick'
p2033
I34
sS'oregon'
p2034
I61
sS'snow'
p2035
I1144
sS'latte'
p2036
I31
sS'suck'
p2037
I396
sS'truck'
p2038
I198
sS'thumb'
p2039
I44
sS'ridiculous'
p2040
I82
sS'boyfriend'
p2041
I646
sS'note'
p2042
I333
sS'sale'
p2043
I138
sS'salt'
p2044
I76
sS'slow'
p2045
I194
sS'tears'
p2046
I111
sS'going'
p2047
I9849
sS'beatles'
p2048
I51
sS'borrow'
p2049
I45
sS'where'
p2050
I1294
sS'screwed'
p2051
I71
sS'before'
p2052
I1752
sS'jobs'
p2053
I98
sS'spare'
p2054
I45
sS'boat'
p2055
I121
sS'grumpy'
p2056
I28
sS'hubby'
p2057
I354
sS'color'
p2058
I276
sS'noon'
p2059
I109
sS'nooo'
p2060
I192
sS'power'
p2061
I278
sS'complete'
p2062
I288
sS'exhausted'
p2063
I285
sS'certain'
p2064
I148
sS'consider'
p2065
I62
sS'spoiled'
p2066
I122
sS'laying'
p2067
I171
sS'fashion'
p2068
I60
sS'social'
p2069
I137
sS'cooler'
p2070
I52
sS'dress'
p2071
I360
sS'attitude'
p2072
I60
sS'snowball'
p2073
I32
sS'blues'
p2074
I43
sS'really'
p2075
I5383
sS'smile'
p2076
I1102
sS'currently'
p2077
I144
sS'rite'
p2078
I94
sS'sweetheart'
p2079
I73
sS'<3'
p2080
I6189
sS'ducks'
p2081
I36
sS'triple'
p2082
I25
sS'barnes'
p2083
I33
sS'surprises'
p2084
I34
sS"can't"
p2085
I3909
sS'surprised'
p2086
I151
sS'projects'
p2087
I65
sS'repair'
p2088
I28
sS'spending'
p2089
I625
sS':'
p2090
I6695
sS'ago'
p2091
I495
sS'age'
p2092
I181
sS'annoyed'
p2093
I66
sS'carrying'
p2094
I25
sS'(5)'
p2095
I26
sS'chillin'
p2096
I522
sS'torture'
p2097
I27
sS'continues'
p2098
I53
sS'marry'
p2099
I136
sS'yayyy'
p2100
I148
sS'odd'
p2101
I74
sS'popcorn'
p2102
I81
sS'opinion'
p2103
I61
sS'ol'
p2104
I111
sS'animals'
p2105
I89
sS'this'
p2106
I14388
sS'thin'
p2107
I43
sS'or'
p2108
I4159
sS'motorcycle'
p2109
I39
sS'cage'
p2110
I25
sS'doing'
p2111
I1648
sS'shut'
p2112
I147
sS'scary'
p2113
I192
sS'pudding'
p2114
I27
sS'scare'
p2115
I40
sS'scarf'
p2116
I30
sS'haven'
p2117
I88
sS'calculus'
p2118
I61
sS'bedroom'
p2119
I61
sS'h'
p2120
I46
sS'btw'
p2121
I204
sS'etc'
p2122
I128
sS'tlk'
p2123
I38
sS'drank'
p2124
I53
sS'optimistic'
p2125
I29
sS'garage'
p2126
I82
sS'literally'
p2127
I109
sS'puts'
p2128
I86
sS'luck'
p2129
I714
sS'rule'
p2130
I33
sS'saved'
p2131
I112
sS'relationships'
p2132
I30
sS'walks'
p2133
I34
sS'voted'
p2134
I25
sS'chapel'
p2135
I33
sS'phones'
p2136
I82
sS'7th'
p2137
I84
sS'told'
p2138
I516
sS'wrapping'
p2139
I63
sS'itunes'
p2140
I55
sS'craving'
p2141
I76
sS'word'
p2142
I416
sS'worn'
p2143
I50
sS'order'
p2144
I217
sS'office'
p2145
I266
sS'techno'
p2146
I25
sS'>:'
p2147
I49
sS'>;'
p2148
I26
sS'>)'
p2149
I110
sS'>*'
p2150
I29
sS'>,'
p2151
I2201
sS'>-'
p2152
I52
sS'comin'
p2153
I116
sS'>!'
p2154
I1258
sS">'"
p2155
I63
sS'decorations'
p2156
I53
sS'>s'
p2157
I69
sS'hike'
p2158
I44
sS'laterr'
p2159
I35
sS'hacking'
p2160
I32
sS'failing'
p2161
I32
sS'phase'
p2162
I31
sS'boyfriends'
p2163
I25
sS'nephew'
p2164
I180
sS'steak'
p2165
I110
sS'yep'
p2166
I146
sS'pedicure'
p2167
I26
sS'received'
p2168
I91
sS'ill'
p2169
I679
sS'ily'
p2170
I158
sS'speak'
p2171
I118
sS'b-day'
p2172
I104
sS'mistake'
p2173
I60
sS'mayo'
p2174
I28
sS'xbox'
p2175
I127
sS'dying'
p2176
I170
sS'reality'
p2177
I126
sS'dance'
p2178
I732
sS'bball'
p2179
I34
sS'brown'
p2180
I227
sS'brownie'
p2181
I46
sS'vegas'
p2182
I172
sS'trouble'
p2183
I146
sS'lemonade'
p2184
I36
sS'today:)'
p2185
I70
sS'southern'
p2186
I33
sS'typical'
p2187
I31
sS'=('
p2188
I3004
sS'showered'
p2189
I35
sS'couldn'
p2190
I67
sS'honest'
p2191
I164
sS'~peace2all~peace-out~one'
p2192
I27
sS'recover'
p2193
I26
sS'online'
p2194
I285
sS'tooth'
p2195
I111
sS'professional'
p2196
I49
sS'crashing'
p2197
I31
sS'3'
p2198
I1916
sS"couldn't"
p2199
I405
sS'coolest'
p2200
I112
sS'business'
p2201
I150
sS'youu'
p2202
I42
sS'your'
p2203
I5715
sS'area'
p2204
I122
sS'you.'
p2205
I91
sS'you!'
p2206
I98
sS'you'
p2207
I18598
sS'building'
p2208
I135
sS'tomorrows'
p2209
I54
sS'tomorrow!'
p2210
I63
sS'tomorrow.'
p2211
I70
sS'wisconsin'
p2212
I29
sS'darkness'
p2213
I32
sS'emotions'
p2214
I35
sS'21st'
p2215
I61
sS'trunk'
p2216
I27
sS'@<'
p2217
I68
sS'aaahhh'
p2218
I67
sS'stayed'
p2219
I191
sS'tried'
p2220
I297
sS'a'
p2221
I46725
sS'relaxin'
p2222
I26
sS'beyond'
p2223
I100
sS'upon'
p2224
I79
sS'terribly'
p2225
I46
sS'expecting'
p2226
I56
sS'missed'
p2227
I772
sS'lie'
p2228
I150
sS'lil'
p2229
I713
sS'lit'
p2230
I56
sS'useless'
p2231
I34
sS'clear'
p2232
I125
sS'clean'
p2233
I592
sS'hyper'
p2234
I59
sS'circle'
p2235
I37
sS'frickin'
p2236
I34
sS'filled'
p2237
I216
sS'2moro'
p2238
I71
sS'both'
p2239
I607
sS'headed'
p2240
I368
sS'naps'
p2241
I61
sS'while'
p2242
I1647
sS'80'
p2243
I71
sS'desk'
p2244
I73
sS'eff'
p2245
I26
sS'added'
p2246
I89
sS'eating'
p2247
I719
sS'sake'
p2248
I29
sS'block'
p2249
I98
sS'registered'
p2250
I62
sS'info'
p2251
I102
sS'nah'
p2252
I32
sS'practically'
p2253
I35
sS'youtube'
p2254
I115
sS'does'
p2255
I1074
sS'vehicle'
p2256
I32
sS'becomes'
p2257
I28
sS'salad'
p2258
I94
sS'ride'
p2259
I592
sS"won't"
p2260
I763
sS'mentioned'
p2261
I33
sS'errands'
p2262
I114
sS'snuggling'
p2263
I29
sS'masters'
p2264
I28
sS'5t3d'
p2265
I62
sS'attending'
p2266
I42
sS'geometry'
p2267
I50
sS'sleepless'
p2268
I30
sS'adopted'
p2269
I29
sS'beside'
p2270
I38
sS'exactly'
p2271
I173
sS'!'
p2272
I51914
sS"that'll"
p2273
I29
sS'screw'
p2274
I104
sS'aww'
p2275
I169
sS'awe'
p2276
I33
sS'earned'
p2277
I27
sS'winner'
p2278
I31
sS'employee'
p2279
I29
sS'overall'
p2280
I128
sS'powder'
p2281
I28
sS'stats'
p2282
I33
sS'state'
p2283
I434
sS'career'
p2284
I73
sS'minds'
p2285
I56
sS'balloon'
p2286
I32
sS'effect'
p2287
I41
sS'flies'
p2288
I52
sS'logged'
p2289
I25
sS'5am'
p2290
I59
sS'twitter'
p2291
I51
sS'ps'
p2292
I76
sS'due'
p2293
I378
sS'todayy'
p2294
I71
sS'captain'
p2295
I30
sS'presents'
p2296
I203
sS'today!'
p2297
I51
sS'today.'
p2298
I52
sS'even'
p2299
I2790
sS'ever'
p2300
I2905
sS"aren't"
p2301
I185
sS'permit'
p2302
I64
sS'cali'
p2303
I97
sS'laughs'
p2304
I83
sS'deck'
p2305
I44
sS','
p2306
I39835
sS'tickets'
p2307
I194
sS'downs'
p2308
I42
sS'starts'
p2309
I484
sS'anybody'
p2310
I273
sS'chest'
p2311
I72
sS'chess'
p2312
I27
sS'bat'
p2313
I36
sS'bar'
p2314
I195
sS'bay'
p2315
I96
sS'bad'
p2316
I2356
sS'bam'
p2317
I27
sS'bah'
p2318
I25
sS'olympics'
p2319
I25
sS'college'
p2320
I730
sS'awesomely'
p2321
I29
sS'three'
p2322
I730
sS'threw'
p2323
I111
sS'gracias'
p2324
I44
sS'suppose'
p2325
I152
sS'balance'
p2326
I39
sS'mexico'
p2327
I124
sS'sushi'
p2328
I143
sS'seattle'
p2329
I89
sS'walkin'
p2330
I34
sS'super'
p2331
I1158
sS'sheets'
p2332
I46
sS'floating'
p2333
I29
sS'playoffs'
p2334
I27
sS'suicide'
p2335
I25
sS'wore'
p2336
I37
sS'did'
p2337
I2190
sS'die'
p2338
I327
sS'dig'
p2339
I27
sS'dip'
p2340
I32
sS'work'
p2341
I7207
sS'knees'
p2342
I52
sS'everybody'
p2343
I551
sS'fly'
p2344
I188
sS'flu'
p2345
I183
sS'soul'
p2346
I187
sS'soup'
p2347
I168
sS'sour'
p2348
I38
sS'6th'
p2349
I120
sS'thank'
p2350
I2997
sS'thanx'
p2351
I76
sS'mail'
p2352
I182
sS'main'
p2353
I74
sS'girl'
p2354
I1381
sS'living'
p2355
I374
sS'correct'
p2356
I26
sS'yess'
p2357
I46
sS'slept'
p2358
I296
sS'seat'
p2359
I52
sS"here's"
p2360
I67
sS'channel'
p2361
I76
sS'track'
p2362
I206
sS'muffin'
p2363
I31
sS'satisfied'
p2364
I60
sS'across'
p2365
I148
sS'lyfe'
p2366
I26
sS'stalking'
p2367
I25
sS'forgotten'
p2368
I63
sS'fried'
p2369
I100
sS'mart'
p2370
I28
sS'mars'
p2371
I49
sS'shopping'
p2372
I1109
sS'slumber'
p2373
I26
sS'warning'
p2374
I60
sS'bags'
p2375
I53
sS'different'
p2376
I334
sS'good:)'
p2377
I52
sS'bottle'
p2378
I114
sS'among'
p2379
I26
sS'lightning'
p2380
I68
sS'despicable'
p2381
I47
sS'resolution'
p2382
I34
sS'burger'
p2383
I56
sS'cancelled'
p2384
I159
sS'2mrw'
p2385
I41
sS"ain't"
p2386
I114
sS'sudden'
p2387
I63
sS'response'
p2388
I38
sS'pt'
p2389
I55
sS'>?'
p2390
I135
sS'someone'
p2391
I1721
sS'>.'
p2392
I1887
sS'house'
p2393
I2525
sS'extended'
p2394
I30
sS'comic'
p2395
I32
sS'acting'
p2396
I100
sS'pc'
p2397
I29
sS'treated'
p2398
I31
sS'built'
p2399
I33
sS'build'
p2400
I65
sS'flute'
p2401
I28
sS'joining'
p2402
I41
sS'fine'
p2403
I306
sS'find'
p2404
I1375
sS'11th'
p2405
I31
sS':(:(:('
p2406
I34
sS'please'
p2407
I1735
sS'powers'
p2408
I26
sS'raise'
p2409
I102
sS'tgif'
p2410
I111
sS'solid'
p2411
I31
sS'forced'
p2412
I29
sS'keys'
p2413
I80
sS'flags'
p2414
I66
sS'follows'
p2415
I27
sS'circles'
p2416
I26
sS'contacts'
p2417
I85
sS'remembered'
p2418
I66
sS'use'
p2419
I581
sS'&'
p2420
I4094
sS'graduation'
p2421
I188
sS'hoped'
p2422
I28
sS'hopes'
p2423
I179
sS'%'
p2424
I314
sS'desert'
p2425
I51
sS'2009'
p2426
I53
sS'bleeding'
p2427
I36
sS'chicago'
p2428
I163
sS'extreme'
p2429
I38
sS'out!'
p2430
I26
sS'collection'
p2431
I37
sS'cuddling'
p2432
I46
sS'lines'
p2433
I66
sS'mention'
p2434
I113
sS'cutting'
p2435
I59
sS':/.'
p2436
I48
sS'marley'
p2437
I32
sS'lecture'
p2438
I27
sS'steal'
p2439
I48
sS'hahahaha'
p2440
I33
sS'roadtrip'
p2441
I25
sS'beat'
p2442
I350
sS'bear'
p2443
I174
sS'bean'
p2444
I55
sS'progress'
p2445
I57
sS'home.'
p2446
I32
sS'appearance'
p2447
I25
sS'though.'
p2448
I45
sS'fucked'
p2449
I67
sS'thought'
p2450
I1074
sS'dryer'
p2451
I35
sS'alive'
p2452
I201
sS'noise'
p2453
I36
sS'guard'
p2454
I94
sS'pic'
p2455
I162
sS'pig'
p2456
I56
sS'pit'
p2457
I47
sS'hating'
p2458
I49
sS'regrets'
p2459
I35
sS'risk'
p2460
I32
sS'mw2'
p2461
I27
sS'>:-('
p2462
I58
sS'jogging'
p2463
I25
sS'25th'
p2464
I32
sS'hunny'
p2465
I42
sS'gate'
p2466
I40
sS'poker'
p2467
I67
sS'mouthy'
p2468
I62
sS'over'
p2469
I3468
sS'oven'
p2470
I55
sS'ramen'
p2471
I32
sS'destroyed'
p2472
I37
sS'20th'
p2473
I58
sS'classes'
p2474
I767
sS'ran'
p2475
I314
sS'raw'
p2476
I27
sS'rat'
p2477
I29
sS'metal'
p2478
I54
sS'quotes'
p2479
I31
sS'bingo'
p2480
I53
sS'lasagna'
p2481
I32
sS'characters'
p2482
I30
sS"mother's"
p2483
I101
sS'laptop'
p2484
I314
sS'theyre'
p2485
I34
sS'sunburned'
p2486
I37
sS'presence'
p2487
I30
sS'uncle'
p2488
I164
sS'removed'
p2489
I34
sS'trig'
p2490
I25
sS'check'
p2491
I661
sS'tip'
p2492
I44
sS'til'
p2493
I841
sS'tie'
p2494
I62
sS'phoenix'
p2495
I43
sS'humor'
p2496
I41
sS'longer'
p2497
I391
sS'neighbors'
p2498
I123
sS'boredd'
p2499
I26
sS'sucky'
p2500
I28
sS'quick'
p2501
I129
sS'stands'
p2502
I33
sS'remain'
p2503
I29
sS'reply'
p2504
I48
sS'plz'
p2505
I101
sS'water'
p2506
I440
sS'baseball'
p2507
I149
sS'memory'
p2508
I215
sS'robinson'
p2509
I25
sS'comfort'
p2510
I59
sS'factory'
p2511
I54
sS'hacked'
p2512
I110
sS'cannot'
p2513
I335
sS'plastic'
p2514
I43
sS'snows'
p2515
I26
sS'senior'
p2516
I304
sS'able'
p2517
I759
sS'woot'
p2518
I310
sS'tomorrow:)'
p2519
I63
sS'wood'
p2520
I77
sS'wooo'
p2521
I196
sS'dye'
p2522
I64
sS'wayy'
p2523
I38
sS'ways'
p2524
I126
sS'review'
p2525
I57
sS'reminded'
p2526
I65
sS'reminder'
p2527
I38
sS'driver'
p2528
I45
sS'drives'
p2529
I26
sS'kill'
p2530
I255
sS'blow'
p2531
I96
sS'hint'
p2532
I28
sS"everyone's"
p2533
I92
sS'mystery'
p2534
I35
sS'makin'
p2535
I142
sS'numb'
p2536
I30
sS'scores'
p2537
I40
sS'intro'
p2538
I32
sS'painted'
p2539
I55
sS'hmu'
p2540
I88
sS'may'
p2541
I1000
sS'hmm'
p2542
I306
sS'lack'
p2543
I62
sS'everyones'
p2544
I76
sS'switched'
p2545
I25
sS'siblings'
p2546
I46
sS'song'
p2547
I778
sS'far'
p2548
I1035
sS'everyone!'
p2549
I81
sS'fat'
p2550
I210
sS'sons'
p2551
I46
sS'fan'
p2552
I140
sS'fam'
p2553
I368
sS'spendin'
p2554
I27
sS'mmm'
p2555
I738
sS'beginning'
p2556
I174
sS'stick'
p2557
I135
sS'sandwich'
p2558
I89
sS'roads'
p2559
I64
sS"don't"
p2560
I3640
sS'member'
p2561
I55
sS'fancy'
p2562
I46
sS'brave'
p2563
I203
sS'regret'
p2564
I87
sS'passes'
p2565
I36
sS'passed'
p2566
I300
sS'syrup'
p2567
I28
sS'headache'
p2568
I418
sS'option'
p2569
I32
sS'relieved'
p2570
I44
sS'sandwiches'
p2571
I34
sS'reach'
p2572
I96
sS'windows'
p2573
I92
sS'hip'
p2574
I53
sS'his'
p2575
I2496
sS'hit'
p2576
I723
sS'banquet'
p2577
I44
sS'tomorrowww'
p2578
I27
sS'bars'
p2579
I50
sS'barn'
p2580
I56
sS'downloaded'
p2581
I32
sS'became'
p2582
I77
sS'8am'
p2583
I50
sS'whos'
p2584
I73
sS'whom'
p2585
I40
sS'whoo'
p2586
I125
sS'whoa'
p2587
I35
sS"who's"
p2588
I234
sS'berealorbegone~peace2all~peace-out~one'
p2589
I75
sS'helpful'
p2590
I31
sS'ignore'
p2591
I67
sS'market'
p2592
I66
sS'foood'
p2593
I25
sS'peppermint'
p2594
I28
sS'clue'
p2595
I57
sS'idiots'
p2596
I26
sS'rabbit'
p2597
I28
sS'women'
p2598
I145
sS'gabby'
p2599
I28
sS'gurl'
p2600
I30
sS'breast'
p2601
I30
sS'dearest'
p2602
I25
sS'write'
p2603
I407
sS'choose'
p2604
I95
sS'covered'
p2605
I99
sS'york'
p2606
I130
sS'conversation'
p2607
I106
sS'b-'
p2608
I82
sS'overtime'
p2609
I36
sS'?!'
p2610
I395
sS'ahold'
p2611
I34
sS'bitches'
p2612
I80
sS'highschool'
p2613
I31
sS'chicken'
p2614
I358
sS'debate'
p2615
I40
sS'craziness'
p2616
I33
sS'ones'
p2617
I447
sS'11am'
p2618
I27
sS'<3<3'
p2619
I93
sS'vanilla'
p2620
I58
sS'choices'
p2621
I45
sS'wild'
p2622
I183
sS'premiere'
p2623
I38
sS'english'
p2624
I438
sS'happiness'
p2625
I252
sS'searching'
p2626
I47
sS'11:'
p2627
I30
sS'leaf'
p2628
I29
sS'lead'
p2629
I81
sS'brush'
p2630
I28
sS'goodness'
p2631
I233
sS'boot'
p2632
I49
sS'book'
p2633
I679
sS'boom'
p2634
I38
sS'booo'
p2635
I105
sS'junk'
p2636
I50
sS'therefore'
p2637
I48
sS'unfortunately'
p2638
I119
sS'locked'
p2639
I64
sS'locker'
p2640
I25
sS'pooped'
p2641
I26
sS'absolute'
p2642
I31
sS'lost'
p2643
I1195
sS'18th'
p2644
I51
sS'horribly'
p2645
I25
sS'spray'
p2646
I25
sS'zac'
p2647
I25
sS'service'
p2648
I214
sS'dozen'
p2649
I28
sS'singer'
p2650
I45
sS'scream'
p2651
I73
sS"baby's"
p2652
I51
sS'bliss'
p2653
I47
sS'rice'
p2654
I119
sS'karate'
p2655
I55
sS'tomarrow'
p2656
I102
sS'bored'
p2657
I1228
sS'blonde'
p2658
I95
sS'union'
p2659
I36
sS'split'
p2660
I37
sS'supper'
p2661
I78
sS'd:)'
p2662
I25
sS'shadow'
p2663
I26
sS'stoked'
p2664
I155
sS'roll'
p2665
I154
sS'osu'
p2666
I28
sS'choice'
p2667
I138
sS'stays'
p2668
I92
sS'accomplished'
p2669
I182
sS'working'
p2670
I1540
sS'laundry'
p2671
I414
sS'swollen'
p2672
I84
sS'pulled'
p2673
I175
sS'years'
p2674
I1219
sS'troubles'
p2675
I27
sS'year!'
p2676
I26
sS'complicated'
p2677
I47
sS'one'
p2678
I6543
sS'looong'
p2679
I84
sS'illness'
p2680
I29
sS"could've"
p2681
I40
sS'vision'
p2682
I25
sS'notice'
p2683
I104
sS'refreshed'
p2684
I31
sS'enjoys'
p2685
I44
sS'awards'
p2686
I54
sS's'
p2687
I104
sS'wants'
p2688
I1233
sS'runnin'
p2689
I49
sS'situation'
p2690
I85
sS'engaged'
p2691
I32
sS'wheels'
p2692
I32
sS'nothin'
p2693
I130
sS'world'
p2694
I1872
sS'happened'
p2695
I335
sS'rush'
p2696
I67
sS'puppy'
p2697
I255
sS'24th'
p2698
I30
sS'small'
p2699
I283
sS'meds'
p2700
I97
sS'past'
p2701
I600
sS'pass'
p2702
I276
sS'anywho'
p2703
I30
sS'clock'
p2704
I105
sS'full'
p2705
I761
sS'november'
p2706
I86
sS"<propmale>'s"
p2707
I55
sS'3:30'
p2708
I31
sS'\xa1'
p2709
I26
sS'door'
p2710
I265
sS'dooo'
p2711
I31
sS'smiling'
p2712
I168
sS'definition'
p2713
I27
sS'tummy'
p2714
I173
sS'sell'
p2715
I78
sS'self'
p2716
I209
sS'also'
p2717
I1110
sS'sometimes'
p2718
I600
sS'barrel'
p2719
I26
sS'caramel'
p2720
I40
sS'tree'
p2721
I309
sS'project'
p2722
I342
sS'15th'
p2723
I34
sS'last'
p2724
I4533
sS'connection'
p2725
I36
sS'cnt'
p2726
I74
sS'emergency'
p2727
I45
sS'benefit'
p2728
I29
sS'welll'
p2729
I40
sS'deserves'
p2730
I44
sS'spam'
p2731
I33
sS'opens'
p2732
I35
sS'chat'
p2733
I139
sS'land'
p2734
I119
sS'uploaded'
p2735
I36
sS'harbor'
p2736
I26
sS'that.'
p2737
I27
sS'thats'
p2738
I746
sS'next'
p2739
I2514
sS'babe'
p2740
I315
sS'baby'
p2741
I2245
sS'lock'
p2742
I45
sS'realized'
p2743
I357
sS'perfect'
p2744
I751
sS'glasses'
p2745
I119
sS'bump'
p2746
I28
sS'length'
p2747
I27
sS'scene'
p2748
I43
sS'ordering'
p2749
I25
sS'dishes'
p2750
I95
sS'tired'
p2751
I1985
sS'thanksgiving'
p2752
I699
sS'jaw'
p2753
I28
sS'>'
p2754
I30160
sS'colts'
p2755
I53
sS'web'
p2756
I31
sS'wee'
p2757
I37
sS'wet'
p2758
I119
sS'pies'
p2759
I29
sS'places'
p2760
I136
sS'placed'
p2761
I38
sS'compared'
p2762
I32
sS'repeat'
p2763
I54
sS'tryin'
p2764
I97
sS'recovery'
p2765
I36
sS'provide'
p2766
I27
sS'appreciate'
p2767
I231
sS'coffee'
p2768
I644
sS'safe'
p2769
I363
sS'dammit'
p2770
I64
sS'n(=t0\xc0'
p2771
I27
sS'wasted'
p2772
I74
sS'december'
p2773
I117
sS'gravy'
p2774
I30
sS'nobody'
p2775
I192
sS'germany'
p2776
I63
sS'sleepy'
p2777
I297
sS'w/o'
p2778
I38
sS'away'
p2779
I1388
sS'attacked'
p2780
I40
sS'cone'
p2781
I31
sS':(!'
p2782
I27
sS':("'
p2783
I197
sS':(.'
p2784
I229
sS'wheel'
p2785
I47
sS'hand'
p2786
I355
sS'camping'
p2787
I230
sS'musical'
p2788
I107
sS'shout'
p2789
I78
sS'born'
p2790
I185
sS'bord'
p2791
I27
sS'confusing'
p2792
I44
sS'asking'
p2793
I99
sS'adorable'
p2794
I175
sS'prayer'
p2795
I136
sS"let's"
p2796
I298
sS'=)=)=)'
p2797
I31
sS"a's"
p2798
I57
sS'sooon'
p2799
I27
sS'cost'
p2800
I63
sS'pillow'
p2801
I78
sS'wonderfully'
p2802
I47
sS"didn't"
p2803
I1177
sS'lounge'
p2804
I34
sS'non'
p2805
I33
sS'not'
p2806
I8971
sS'nor'
p2807
I42
sS'blind'
p2808
I60
sS'blink'
p2809
I29
sS'ring'
p2810
I144
sS'appreciated'
p2811
I103
sS'titans'
p2812
I27
sS'attempting'
p2813
I55
sS'mrs'
p2814
I139
sS'discovered'
p2815
I101
sS'snack'
p2816
I57
sS'aaand'
p2817
I31
sS'wait!'
p2818
I48
sS'sick:('
p2819
I30
sS'150'
p2820
I29
sS'actually'
p2821
I1225
sS"<propfirst>'s"
p2822
I75
sS'joke'
p2823
I81
sS"'."
p2824
I69
sS'ps3'
p2825
I48
sS'twelve'
p2826
I26
sS'^_^'
p2827
I102
sS'stare'
p2828
I29
sS'start'
p2829
I1712
sS'stars'
p2830
I163
sS'allergic'
p2831
I46
sS'delayed'
p2832
I37
sS'rjh'
p2833
I29
sS'month'
p2834
I682
sS'horror'
p2835
I64
sS'w/my'
p2836
I34
sS'learned'
p2837
I337
sS'except'
p2838
I351
sS'grill'
p2839
I68
sS'cutie'
p2840
I43
sS'starbucks'
p2841
I186
sS'miss'
p2842
I3356
sS'7'
p2843
I580
sS'houses'
p2844
I56
sS'loads'
p2845
I39
sS'horse'
p2846
I145
sS'station'
p2847
I88
sS'sigh'
p2848
I468
sS'hundred'
p2849
I28
sS'boredom'
p2850
I51
sS'grey'
p2851
I43
sS'justice'
p2852
I37
sS'feels'
p2853
I1200
sS'pretending'
p2854
I25
sS'pictures'
p2855
I612
sS'missing'
p2856
I753
sS'happy:)'
p2857
I39
sS'lived'
p2858
I93
sS'lives'
p2859
I213
sS'smart'
p2860
I133
sS'guide'
p2861
I37
sS'000'
p2862
I36
sS'lik'
p2863
I29
sS'eee'
p2864
I30
sS'wouldnt'
p2865
I83
sS'classical'
p2866
I33
sS'e'
p2867
I111
sS'dvd'
p2868
I62
sS'friendly'
p2869
I48
sS'wave'
p2870
I44
sS'blog'
p2871
I61
sS'econ'
p2872
I29
sS'stole'
p2873
I90
sS'farm'
p2874
I94
sS'thunderstorm'
p2875
I42
sS'yrs'
p2876
I46
sS'costume'
p2877
I141
sS"you're"
p2878
I1019
sS'snowed'
p2879
I53
sS'tunes'
p2880
I44
sS'tent'
p2881
I27
sS'hits'
p2882
I36
sS'shoulders'
p2883
I45
sS'mega'
p2884
I26
sS'parts'
p2885
I89
sS'party'
p2886
I1606
sS'twilight'
p2887
I90
sS'loss'
p2888
I63
sS'necessary'
p2889
I32
sS'episodes'
p2890
I55
sS'lose'
p2891
I210
sS'library'
p2892
I206
sS'home'
p2893
I6387
sS'ultrasound'
p2894
I45
sS'north'
p2895
I172
sS'strawberries'
p2896
I40
sS'likely'
p2897
I104
sS'fantastic'
p2898
I318
sS'survive'
p2899
I71
sS'skype'
p2900
I135
sS'stressing'
p2901
I26
sS'foods'
p2902
I36
sS'amazing'
p2903
I3181
sS'goodbye'
p2904
I273
sS'wut'
p2905
I31
sS'bonus'
p2906
I53
sS'ihop'
p2907
I59
sS'resume'
p2908
I31
sS'\x02'
p2909
I31
sS'warped'
p2910
I43
sS'fml'
p2911
I189
sS'tells'
p2912
I71
sS'hide'
p2913
I95
sS'watermelon'
p2914
I34
sS'supplies'
p2915
I49
sS'ears'
p2916
I102
sS'wears'
p2917
I28
sS'cousin'
p2918
I325
sS'propfirst'
p2919
I11420
sS'basic'
p2920
I31
sS'seven'
p2921
I104
sS'settled'
p2922
I41
sS'yea'
p2923
I350
sS'yes'
p2924
I1026
sS'yet'
p2925
I987
sS'omfg'
p2926
I55
sS'save'
p2927
I236
sS'zombies'
p2928
I57
sS'staff'
p2929
I64
sS'oreo'
p2930
I25
sS'flying'
p2931
I143
sS'average'
p2932
I33
sS'3.'
p2933
I162
sS'muffins'
p2934
I49
sS'holla'
p2935
I57
sS'roomies'
p2936
I40
sS'journey'
p2937
I95
sS'weekend'
p2938
I4260
sS'jacket'
p2939
I58
sS'0'
p2940
I33
sS'hooray'
p2941
I96
sS'round'
p2942
I175
sS'unexpected'
p2943
I46
sS'dealing'
p2944
I43
sS'visit'
p2945
I491
sS'ahhh'
p2946
I750
sS'making'
p2947
I1510
sS'idk'
p2948
I369
sS'freezing'
p2949
I146
sS'basket'
p2950
I26
sS'group'
p2951
I344
sS'interesting'
p2952
I491
sS'performance'
p2953
I118
sS'rehearsal'
p2954
I104
sS'takin'
p2955
I90
sS'storms'
p2956
I47
sS'awareness'
p2957
I50
sS'morning'
p2958
I2990
sS'enough'
p2959
I899
sS'ima'
p2960
I198
sS'^'
p2961
I171
sS'sound'
p2962
I316
sS'coco'
p2963
I32
sS'sleeping'
p2964
I528
sS'p90x'
p2965
I28
sS'outdoor'
p2966
I27
sS'nap'
p2967
I702
sS'outs'
p2968
I28
sS'knife'
p2969
I30
sS'out.'
p2970
I29
sS'mondays'
p2971
I82
sS'again'
p2972
I3598
sS'enjoying'
p2973
I604
sS'sitting'
p2974
I588
sS'bestie'
p2975
I203
sS'pre'
p2976
I39
sS'washing'
p2977
I58
sS'perspective'
p2978
I27
sS'caffeine'
p2979
I34
sS'misery'
p2980
I26
sS'landed'
p2981
I33
sS'wal-mart'
p2982
I27
sS'duper'
p2983
I36
sS'coming'
p2984
I1274
sS'through'
p2985
I1124
sS'golfing'
p2986
I26
sS'messed'
p2987
I119
sS'fantasy'
p2988
I51
sS'needing'
p2989
I42
sS'tonighttt'
p2990
I28
sS'showers'
p2991
I47
sS'couch'
p2992
I210
sS'express'
p2993
I64
sS'bak'
p2994
I88
sS'pissed'
p2995
I155
sS'restaurant'
p2996
I57
sS'hangout'
p2997
I58
sS'2night'
p2998
I39
sS'migraine'
p2999
I69
sS'(4)'
p3000
I25
sS'task'
p3001
I40
sS'shape'
p3002
I71
sS'cut'
p3003
I468
sS'cus'
p3004
I35
sS'cup'
p3005
I248
sS'cuz'
p3006
I824
sS'kinect'
p3007
I28
sS'source'
p3008
I29
sS'absolutely'
p3009
I402
sS"girl's"
p3010
I35
sS'decision'
p3011
I107
sS'epic'
p3012
I308
sS'prices'
p3013
I26
sS'invite'
p3014
I88
sS'planet'
p3015
I73
sS'cafe'
p3016
I67
sS'pickles'
p3017
I25
sS'happy.'
p3018
I32
sS'happy!'
p3019
I33
sS'strep'
p3020
I76
sS'dessert'
p3021
I43
sS'talent'
p3022
I57
sS'climb'
p3023
I32
sS'butler'
p3024
I35
sS'4am'
p3025
I60
sS'package'
p3026
I46
sS'preschool'
p3027
I55
sS'10pm'
p3028
I30
sS'cider'
p3029
I31
sS'diaries'
p3030
I33
sS'eww'
p3031
I29
sS'que'
p3032
I212
sS'backwards'
p3033
I32
sS'hey'
p3034
I787
sS'babys'
p3035
I30
sS'throat'
p3036
I322
sS'hopefully'
p3037
I1440
sS'fixed'
p3038
I284
sS'news'
p3039
I390
sS'partner'
p3040
I49
sS')'
p3041
I5964
sS'sisters'
p3042
I263
sS'gma'
p3043
I25
sS'time:)'
p3044
I40
sS'female'
p3045
I33
sS'periods'
p3046
I44
sS'school'
p3047
I4623
sS'bestfriend'
p3048
I94
sS'n'
p3049
I1180
sS'blue'
p3050
I387
sS'would'
p3051
I2862
sS'appointment'
p3052
I163
sS'400'
p3053
I39
sS'iowa'
p3054
I55
sS'wayyy'
p3055
I58
sS'saturday'
p3056
I987
sS'laid'
p3057
I35
sS't-'
p3058
I34
sS'nite'
p3059
I400
sS'bears'
p3060
I81
sS'heck'
p3061
I164
sS'final'
p3062
I505
sS'yucky'
p3063
I36
sS'dads'
p3064
I113
sS'entertaining'
p3065
I77
sS'colors'
p3066
I90
sS'bruise'
p3067
I27
sS'despite'
p3068
I127
sS'grandmother'
p3069
I30
sS'however'
p3070
I181
sS'conference'
p3071
I104
sS'<MENTION>'
p3072
I194
sS'burns'
p3073
I37
sS'burnt'
p3074
I116
sS'avatar'
p3075
I111
sS'awesome'
p3076
I3730
sS'deleted'
p3077
I63
sS'necklace'
p3078
I27
sS'dinner'
p3079
I1689
sS'\x85'
p3080
I27
sS'bath'
p3081
I156
sS'gorgeous'
p3082
I216
sS'setting'
p3083
I58
sS'whew'
p3084
I81
sS'level'
p3085
I105
sS'posts'
p3086
I67
sS'cloudy'
p3087
I48
sS'i\x92m'
p3088
I28
sS'pork'
p3089
I26
sS'entertain'
p3090
I41
sS'exams'
p3091
I123
sS'nursing'
p3092
I42
sS'gas'
p3093
I142
sS'tommorrow'
p3094
I80
sS'catching'
p3095
I129
sS'yup'
p3096
I97
sS'parking'
p3097
I84
sS'sure'
p3098
I1230
sS'later'
p3099
I1307
sS'urge'
p3100
I33
sS"y'all"
p3101
I97
sS'spirit'
p3102
I125
sS'granted'
p3103
I35
sS'nighter'
p3104
I71
sS'yeahhh'
p3105
I39
sS'week'
p3106
I3447
sS'weee'
p3107
I26
sS'weed'
p3108
I45
sS'without'
p3109
I966
sS'relief'
p3110
I58
sS'when'
p3111
I5052
sS'lets'
p3112
I556
sS'donations'
p3113
I31
sS'competition'
p3114
I103
sS'mood'
p3115
I658
sS'there'
p3116
I3677
sS'treat'
p3117
I129
sS'ended'
p3118
I256
sS'taste'
p3119
I159
sS'tasty'
p3120
I39
sS'roses'
p3121
I61
sS'wiff'
p3122
I37
sS'wife'
p3123
I128
sS'wifi'
p3124
I28
sS'list'
p3125
I336
sS'liars'
p3126
I60
sS'version'
p3127
I56
sS'christian'
p3128
I127
sS'milkshake'
p3129
I25
sS'donuts'
p3130
I41
sS'flat'
p3131
I79
sS'flag'
p3132
I36
sS'\xe1'
p3133
I32
sS'besides'
p3134
I110
sS'rather'
p3135
I283
sS'okay'
p3136
I692
sS'shore'
p3137
I94
sS'bout'
p3138
I651
sS'clouds'
p3139
I72
sS'weight'
p3140
I119
sS'alcohol'
p3141
I39
sS'friday'
p3142
I1851
sS'snowboarding'
p3143
I51
sS'fallen'
p3144
I44
sS'"'
p3145
I2994
sS'8:30'
p3146
I44
sS'electric'
p3147
I46
sS'sweet'
p3148
I1075
sS'dudes'
p3149
I27
sS'village'
p3150
I37
sS'demand'
p3151
I27
sS'frozen'
p3152
I82
sS'wierd'
p3153
I38
sS'states'
p3154
I73
sS'zombie'
p3155
I90
sS'range'
p3156
I42
sS'auntie'
p3157
I40
sS'question'
p3158
I268
sS'international'
p3159
I41
sS'shes'
p3160
I221
sS'peach'
p3161
I34
sS'peace'
p3162
I344
sS'happier'
p3163
I193
sS'gang'
p3164
I45
sS'itll'
p3165
I34
sS'confirmation'
p3166
I29
sS"you'd"
p3167
I63
sS'ummm'
p3168
I63
sS'degree'
p3169
I101
sS'leaving'
p3170
I635
sS'>=)'
p3171
I60
sS'app'
p3172
I60
sS'apt'
p3173
I72
sS'eagles'
p3174
I25
sS'midterm'
p3175
I84
sS'attend'
p3176
I43
sS'wrist'
p3177
I58
sS'taco'
p3178
I120
sS'holiday'
p3179
I225
sS'dreaming'
p3180
I63
sS'cry'
p3181
I313
sS'our'
p3182
I2318
sS'out'
p3183
I11103
sS'twas'
p3184
I25
sS"doesn't"
p3185
I880
sS'fear'
p3186
I121
sS'local'
p3187
I56
sS'available'
p3188
I48
sS':d.'
p3189
I52
sS'bought'
p3190
I518
sS'opening'
p3191
I120
sS':d!'
p3192
I32
sS'(9)'
p3193
I27
sS'~'
p3194
I458
sS'thus'
p3195
I54
sS'perhaps'
p3196
I65
sS'difficult'
p3197
I81
sS'weekend:)'
p3198
I40
sS'facial'
p3199
I26
sS'press'
p3200
I32
sS'wonders'
p3201
I78
sS'church'
p3202
I774
sS'<CAPS>'
p3203
I46661
sS'weather'
p3204
I976
sS'promise'
p3205
I153
sS'transfer'
p3206
I33
sS'incredible'
p3207
I105
sS'incredibly'
p3208
I89
sS'todays'
p3209
I110
sS'oooh'
p3210
I72
sS'ahead'
p3211
I312
sS'dorm'
p3212
I103
sS'dork'
p3213
I64
sS"i'd"
p3214
I605
sS'military'
p3215
I38
sS"i'm"
p3216
I10806
sS'sweetest'
p3217
I77
sS'relax'
p3218
I381
sS'organized'
p3219
I31
sS'turn'
p3220
I498
sS'yum'
p3221
I241
sS'wash'
p3222
I122
sS'wasn'
p3223
I34
sS'listen'
p3224
I261
sS'flippin'
p3225
I27
sS'guys!'
p3226
I48
sS'doin'
p3227
I217
sS'letter'
p3228
I209
sS'episode'
p3229
I151
sS'respond'
p3230
I45
sS'blew'
p3231
I49
sS'fail'
p3232
I226
sS'bleh'
p3233
I112
sS'fairly'
p3234
I30
sS'tops'
p3235
I26
sS'shitty'
p3236
I87
sS'suffering'
p3237
I36
sS'possible'
p3238
I208
sS'possibly'
p3239
I239
sS'unique'
p3240
I29
sS'steph'
p3241
I54
sS'for'
p3242
I27817
sS'fox'
p3243
I50
sS'fog'
p3244
I25
sS'umm'
p3245
I56
sS'dental'
p3246
I29
sS'lions'
p3247
I25
sS'dollars'
p3248
I140
sS'calm'
p3249
I81
sS'tigers'
p3250
I26
sS'calc'
p3251
I54
sS'airbender'
p3252
I30
sS'crutches'
p3253
I25
sS'began'
p3254
I25
sS'vet'
p3255
I108
sS'tear'
p3256
I93
sS'subway'
p3257
I81
sS'team'
p3258
I431
sS'bonfire'
p3259
I83
sS'jammin'
p3260
I53
sS'love'
p3261
I11487
sS'bloody'
p3262
I40
sS'positive'
p3263
I168
sS'wondering'
p3264
I205
sS'muah'
p3265
I26
sS'spot'
p3266
I78
sS'applications'
p3267
I61
sS'feelin'
p3268
I329
sS'answer'
p3269
I263
sS'potter'
p3270
I292
sS'mucho'
p3271
I46
sS'typing'
p3272
I48
sS'much!'
p3273
I30
sS'walking'
p3274
I310
sS'hockey'
p3275
I112
sS'16th'
p3276
I39
sS'jets'
p3277
I34
sS'guitar'
p3278
I244
sS'yelled'
p3279
I29
sS'vacation'
p3280
I429
sS'thousand'
p3281
I41
sS'skies'
p3282
I32
sS'playin'
p3283
I132
sS'thinks'
p3284
I582
sS'tube'
p3285
I29
sS'went'
p3286
I2631
sS'freaked'
p3287
I29
sS'technically'
p3288
I31
sS"they're"
p3289
I262
sS'having'
p3290
I2315
sS'original'
p3291
I66
sS'condition'
p3292
I25
sS'turning'
p3293
I173
sS'section'
p3294
I38
sS'nurse'
p3295
I49
sS'hours'
p3296
I2030
sS'pics'
p3297
I441
sS'pick'
p3298
I427
sS'action'
p3299
I58
sS'#2'
p3300
I28
sS'keeping'
p3301
I156
sS'science'
p3302
I172
sS'sense'
p3303
I154
sS'information'
p3304
I63
sS'mexican'
p3305
I89
sS'skipped'
p3306
I29
sS'always'
p3307
I1923
sS'misses'
p3308
I290
sS'w'
p3309
I177
sS'number'
p3310
I595
sS'twisted'
p3311
I26
sS'appreciation'
p3312
I33
sS'grace'
p3313
I114
sS'determined'
p3314
I59
sS'marriage'
p3315
I40
sS'remembers'
p3316
I30
sS'play'
p3317
I1401
sS'yawn'
p3318
I37
sS'plan'
p3319
I326
sS'session'
p3320
I99
sS'failed'
p3321
I96
sS'anxiety'
p3322
I33
sS'preparing'
p3323
I57
sS':-)"'
p3324
I100
sS':-).'
p3325
I72
sS'nope'
p3326
I39
sS'whole'
p3327
I1047
sS'acceptance'
p3328
I37
sS'hitting'
p3329
I92
sS"what's"
p3330
I257
sS'funny'
p3331
I918
sS'funnn'
p3332
I79
sS'recent'
p3333
I26
sS'b.'
p3334
I27
sS'b4'
p3335
I85
sS'be'
p3336
I15650
sS'bc'
p3337
I92
sS'bt'
p3338
I65
sS'bs'
p3339
I36
sS'every1'
p3340
I53
sS'relaxed'
p3341
I52
sS'link'
p3342
I64
sS'line'
p3343
I195
sS'phantom'
p3344
I31
sS'meals'
p3345
I25
sS'hella'
p3346
I90
sS'dislike'
p3347
I145
sS'twins'
p3348
I42
sS'bird'
p3349
I97
sS'led'
p3350
I33
sS'leg'
p3351
I126
sS'let'
p3352
I1878
sS'jeans'
p3353
I85
sS'standing'
p3354
I77
sS'doubt'
p3355
I75
sS'animal'
p3356
I143
sS'bag'
p3357
I139
sS'bunches'
p3358
I27
sS'surely'
p3359
I31
sS'blown'
p3360
I47
sS'tomato'
p3361
I29
sS'studying'
p3362
I399
sS'sweetie'
p3363
I57
sS'grass'
p3364
I59
sS'2012'
p3365
I41
sS'surprisingly'
p3366
I58
sS'phi'
p3367
I29
sS'dust'
p3368
I41
sS'replacement'
p3369
I33
sS'thier'
p3370
I28
sS'kitties'
p3371
I34
sS'avoid'
p3372
I40
sS'truth'
p3373
I147
sS'stage'
p3374
I71
sS'sister'
p3375
I796
sS'finaly'
p3376
I38
sS'count'
p3377
I162
sS'smooth'
p3378
I48
sS'hilarious'
p3379
I165
sS"women's"
p3380
I27
sS'honor'
p3381
I142
sS'above'
p3382
I88
sS'study'
p3383
I484
sS'aka'
p3384
I115
sS'titanic'
p3385
I35
sS'fudge'
p3386
I44
sS'bday'
p3387
I369
sS'chilled'
p3388
I37
sS'chillen'
p3389
I55
sS'greek'
p3390
I44
sS'green'
p3391
I394
sS'somewhere'
p3392
I170
sS'then'
p3393
I7308
sS'them'
p3394
I2474
sS'thee'
p3395
I105
sS'they'
p3396
I3651
sS'recovering'
p3397
I31
sS'chopped'
p3398
I25
sS'strength'
p3399
I78
sS'juss'
p3400
I43
sS'd:'
p3401
I112
sS'sentence'
p3402
I25
sS'do'
p3403
I6813
sS'di'
p3404
I36
sS'dd'
p3405
I64
sS'de'
p3406
I371
sS'dc'
p3407
I67
sS'da'
p3408
I337
sS'dr'
p3409
I255
sS'ds'
p3410
I31
sS'sux'
p3411
I54
sS'o_o'
p3412
I35
sS'cow'
p3413
I46
sS'cod'
p3414
I48
sS'com'
p3415
I77
sS'con'
p3416
I122
sS'petty'
p3417
I35
sS'voice'
p3418
I288
sS'ohhh'
p3419
I135
sS'plates'
p3420
I29
sS'evil'
p3421
I132
sS'thx'
p3422
I45
sS'tht'
p3423
I126
sS'tho'
p3424
I445
sS'the'
p3425
I53052
sS'tha'
p3426
I120
sS'hills'
p3427
I61
sS'cape'
p3428
I33
sS'security'
p3429
I26
sS'purple'
p3430
I191
sS'fight'
p3431
I278
sS'interested'
p3432
I183
sS'blast'
p3433
I557
sS'p'
p3434
I40
sS'lakers'
p3435
I57
sS'hiking'
p3436
I87
sS'meant'
p3437
I128
sS'7pm'
p3438
I34
sS'spa'
p3439
I49
sS'productive'
p3440
I268
sS'means'
p3441
I526
sS'indeed'
p3442
I49
sS'haircut'
p3443
I173
sS'snuggie'
p3444
I26
sS'wont'
p3445
I465
sS'amazingly'
p3446
I74
sS'size'
p3447
I94
sS'friend'
p3448
I1913
sS'mostly'
p3449
I90
sS'short'
p3450
I403
sS'becuz'
p3451
I25
sS'angel'
p3452
I142
sS'13th'
p3453
I61
sS'anger'
p3454
I47
sS'husband'
p3455
I327
sS'concert'
p3456
I604
sS'cruise'
p3457
I56
sS'yumm'
p3458
I62
sS'article'
p3459
I26
sS'talented'
p3460
I39
sS'comes'
p3461
I594
sS'coworkers'
p3462
I26
sS'fruit'
p3463
I75
sS'mentally'
p3464
I30
sS'burrito'
p3465
I28
sS'speed'
p3466
I52
sS'aced'
p3467
I41
sS'lady'
p3468
I300
sS'pounds'
p3469
I88
sS'central'
p3470
I75
sS'jones'
p3471
I81
sS'trying'
p3472
I968
sS'bucket'
p3473
I29
sS'describe'
p3474
I88
sS'moved'
p3475
I208
sS'nerd'
p3476
I89
sS'strings'
p3477
I28
sS'strong'
p3478
I248
sS'colored'
p3479
I41
sS'finally'
p3480
I3312
sS'site'
p3481
I61
sS'broke'
p3482
I485
sS'hurry'
p3483
I134
sS'spontaneous'
p3484
I25
sS'idaho'
p3485
I28
sS'ft'
p3486
I46
sS'fb'
p3487
I767
sS'fl'
p3488
I40
sS'fo'
p3489
I46
sS'bugs'
p3490
I47
sS'auburn'
p3491
I35
sS'fully'
p3492
I69
sS'trailer'
p3493
I36
sS'dirt'
p3494
I48
sS'base'
p3495
I27
sS'comfy'
p3496
I74
sS'behind'
p3497
I224
sS'towards'
p3498
I80
sS'quote'
p3499
I97
sS'eaten'
p3500
I53
sS'famous'
p3501
I61
sS'during'
p3502
I349
sS'wow'
p3503
I1092
sS'won'
p3504
I642
sS'piss'
p3505
I48
sS'buzz'
p3506
I28
sS'wait'
p3507
I4353
sS'pilgrim'
p3508
I25
sS'anymore'
p3509
I606
sS'belong'
p3510
I29
sS'tiring'
p3511
I42
sS'faith'
p3512
I120
sS'seeing'
p3513
I629
sS'himself'
p3514
I98
sS'daylight'
p3515
I30
sS'adults'
p3516
I29
sS'sharing'
p3517
I57
sS'ending'
p3518
I149
sS"she's"
p3519
I387
sS';'
p3520
I1494
sS'9th'
p3521
I49
sS'focused'
p3522
I25
sS'arrive'
p3523
I33
sS'tunnel'
p3524
I25
sS'1/2'
p3525
I214
sS'mode'
p3526
I56
sS"one's"
p3527
I31
sS'it:)'
p3528
I94
sS'keep'
p3529
I1274
sS'fuzzy'
p3530
I53
sS'herself'
p3531
I129
sS'montana'
p3532
I39
sS'prayers'
p3533
I221
sS'luv'
p3534
I210
sS'joys'
p3535
I51
sS'jersey'
p3536
I124
sS'route'
p3537
I28
sS'kicks'
p3538
I34
sS'resident'
p3539
I27
sS'ing'
p3540
I28
sS'sarcastic'
p3541
I94
sS'paycheck'
p3542
I68
sS'i'
p3543
I56680
sS'headin'
p3544
I104
sS'nate'
p3545
I39
sS'sissy'
p3546
I69
sS'liking'
p3547
I95
sS'noticed'
p3548
I88
sS'hr'
p3549
I85
sS'hs'
p3550
I37
sS'hp'
p3551
I35
sS'hw'
p3552
I290
sS'hi'
p3553
I209
sS'hm'
p3554
I49
sS'ha'
p3555
I196
sS'he'
p3556
I966
sS'twist'
p3557
I28
sS'rescue'
p3558
I45
sS'affect'
p3559
I33
sS'new'
p3560
I5713
sS'county'
p3561
I101
sS'counts'
p3562
I30
sS'recommend'
p3563
I51
sS'type'
p3564
I200
sS'posting'
p3565
I75
sS'keyboard'
p3566
I41
sS'surprise'
p3567
I212
sS'revenge'
p3568
I37
sS'messages'
p3569
I104
sS'fuckin'
p3570
I151
sS'girly'
p3571
I35
sS'girls'
p3572
I1139
sS'niece'
p3573
I138
sS'medical'
p3574
I62
sS'points'
p3575
I99
sS'you:)'
p3576
I53
sS"there's"
p3577
I462
sS'springs'
p3578
I69
sS'voices'
p3579
I26
sS'tank'
p3580
I77
sS'chilling'
p3581
I125
sS'shame'
p3582
I50
sS'jealous'
p3583
I146
sS'pandora'
p3584
I51
sS'answering'
p3585
I26
sS'ops'
p3586
I75
sS'tmrw'
p3587
I64
sS'puking'
p3588
I28
sS'yelling'
p3589
I49
sS'nerve'
p3590
I42
sS'negative'
p3591
I47
sS'fork'
p3592
I25
sS'form'
p3593
I73
sS'fort'
p3594
I51
sS'delete'
p3595
I49
sS'classic'
p3596
I67
sS'ship'
p3597
I39
sS'shit'
p3598
I632
sS'hangin'
p3599
I221
sS'felt'
p3600
I386
sS'fell'
p3601
I327
sS'award'
p3602
I49
sS'billion'
p3603
I29
sS'yummy'
p3604
I410
sS'yummm'
p3605
I99
sS'marks'
p3606
I25
sS'shave'
p3607
I25
sS'schoool'
p3608
I42
sS'heres'
p3609
I32
sS'priceless'
p3610
I81
sS'thru'
p3611
I137
sS'ooo'
p3612
I70
sS'ooh'
p3613
I31
sS'savior'
p3614
I25
sS'effort'
p3615
I37
sS'wallet'
p3616
I33
sS'growing'
p3617
I114
sS'crazy'
p3618
I1201
sS'moves'
p3619
I40
sS'grow'
p3620
I191
sS'outline'
p3621
I25
sS'chef'
p3622
I34
sS'jail'
p3623
I46
sS'bullshit'
p3624
I39
sS'stupid'
p3625
I933
sS'monster'
p3626
I108
sS'amigos'
p3627
I27
sS'pain'
p3628
I527
sS'paid'
p3629
I187
sS'curled'
p3630
I25
sS'black'
p3631
I632
sS'honesty'
p3632
I48
sS'j.'
p3633
I30
sS'pump'
p3634
I31
sS'reading'
p3635
I570
sS'jr'
p3636
I66
sS'je'
p3637
I43
sS'tub'
p3638
I61
sS'lopez'
p3639
I34
sS'cancel'
p3640
I35
sS'totally'
p3641
I688
sS'amazed'
p3642
I60
sS'backs'
p3643
I28
sS'4'
p3644
I1636
sS'giggle'
p3645
I33
sS'island'
p3646
I137
sS'bonding'
p3647
I43
sS"wasn't"
p3648
I393
sS'videos'
p3649
I124
sS'shelter'
p3650
I35
sS'mothers'
p3651
I115
sS'reminding'
p3652
I32
sS'airport'
p3653
I191
sS'dew'
p3654
I35
sS'dem'
p3655
I25
sS'den'
p3656
I36
sS'dec'
p3657
I43
sS'def'
p3658
I97
sS':):)'
p3659
I235
sS'drained'
p3660
I34
sS'everyday'
p3661
I260
sS'doctor'
p3662
I272
sS'pleasure'
p3663
I38
sS'late'
p3664
I715
sS'dolls'
p3665
I28
sS'pan'
p3666
I39
sS'pathetic'
p3667
I29
sS'pleasant'
p3668
I53
sS'twenty'
p3669
I44
sS'paint'
p3670
I175
sS'mama'
p3671
I175
sS'courage'
p3672
I28
sS'alot'
p3673
I407
sS'secret'
p3674
I130
sS'fun'
p3675
I5934
sS'assignment'
p3676
I64
sS'spent'
p3677
I668
sS'spend'
p3678
I768
sS'mon'
p3679
I39
sS'mom'
p3680
I1781
sS'hated'
p3681
I34
sS'hates'
p3682
I310
sS'back'
p3683
I7322
sS'from'
p3684
I7047
sS'8pm'
p3685
I42
sS'creepy'
p3686
I55
sS'peanut'
p3687
I108
sS'putting'
p3688
I249
sS'doggy'
p3689
I29
sS'19th'
p3690
I40
sS'named'
p3691
I121
sS'names'
p3692
I87
sS'themselves'
p3693
I64
sS'praise'
p3694
I87
sS'philosophy'
p3695
I33
sS'awesome!'
p3696
I32
sS'bunch'
p3697
I249
sS'la'
p3698
I412
sS'lo'
p3699
I74
sS'll'
p3700
I114
sS'criminal'
p3701
I41
sS"mommy's"
p3702
I25
sS'retail'
p3703
I31
sS'w.'
p3704
I35
sS'gnite'
p3705
I28
sS'wakes'
p3706
I40
sS'comfortable'
p3707
I48
sS'tide'
p3708
I28
sS'busted'
p3709
I35
sS'comment'
p3710
I454
sS'pouring'
p3711
I46
sS'usual'
p3712
I126
sS'coaster'
p3713
I31
sS'lemon'
p3714
I47
sS'burgers'
p3715
I38
sS'slight'
p3716
I40
sS'hot'
p3717
I1102
sS'!)'
p3718
I187
sS'!,'
p3719
I31
sS'doesnt'
p3720
I263
sS'!?'
p3721
I117
sS'wise'
p3722
I61
sS'baker'
p3723
I30
sS'baked'
p3724
I83
sS'hate'
p3725
I1951
sS'enjoy'
p3726
I752
sS'shining'
p3727
I72
sS'children'
p3728
I242
sS'studio'
p3729
I49
sS'feelings'
p3730
I95
sS'breathe'
p3731
I122
sS'shoot'
p3732
I147
sS'join'
p3733
I270
sS'mornin'
p3734
I106
sS'mess'
p3735
I174
sS'washed'
p3736
I78
sS'western'
p3737
I29
sS'lbs'
p3738
I60
sS'-'
p3739
I4099
sS'treats'
p3740
I50
sS'flow'
p3741
I30
sS'random'
p3742
I375
sS'tries'
p3743
I30
sS'photo'
p3744
I103
sS'twice'
p3745
I159
sS'shots'
p3746
I135
sS'duck'
p3747
I34
sS'nun'
p3748
I26
sS'360'
p3749
I39
sS'boss'
p3750
I106
sS'beef'
p3751
I46
sS'been'
p3752
I3957
sS'beer'
p3753
I253
sS'terrible'
p3754
I181
sS'downtown'
p3755
I136
sS'bands'
p3756
I88
sS'amor'
p3757
I33
sS'core'
p3758
I26
sS'corn'
p3759
I90
sS'mass'
p3760
I46
sS'nj'
p3761
I29
sS'no'
p3762
I5783
sS'na'
p3763
I59
sS'commercials'
p3764
I35
sS'nd'
p3765
I174
sS'ne'
p3766
I34
sS'ny'
p3767
I80
sS'nt'
p3768
I33
sS"n'"
p3769
I38
sS'ouch'
p3770
I90
sS'advantage'
p3771
I49
sS'confused'
p3772
I128
sS'['
p3773
I302
sS'thirty'
p3774
I50
sS'1st'
p3775
I416
sS'msg'
p3776
I32
sS'laughter'
p3777
I75
sS'doctors'
p3778
I118
sS'arm'
p3779
I129
sS'float'
p3780
I37
sS'begun'
p3781
I51
sS'theory'
p3782
I70
sS'1000'
p3783
I63
sS'lmao'
p3784
I349
sS')=?/'
p3785
I26
sS'dissapointed'
p3786
I28
sS'and'
p3787
I46536
sS'falls'
p3788
I86
sS'connor'
p3789
I50
sS'freshman'
p3790
I88
sS'recipe'
p3791
I35
sS'favor'
p3792
I77
sS'true'
p3793
I531
sS'penguins'
p3794
I25
sS'picnic'
p3795
I86
sS'#1'
p3796
I42
sS'ability'
p3797
I40
sS'promised'
p3798
I34
sS'events'
p3799
I67
sS'todos'
p3800
I42
sS'changing'
p3801
I102
sS'recital'
p3802
I55
sS'model'
p3803
I55
sS'kingdom'
p3804
I30
sS'easily'
p3805
I67
sS'buddies'
p3806
I114
sS'legal'
p3807
I41
sS'welcome'
p3808
I222
sS'don'
p3809
I533
sS'decent'
p3810
I130
sS'750'
p3811
I25
sS'idiot'
p3812
I68
sS'flower'
p3813
I45
sS'included'
p3814
I26
sS'follow'
p3815
I136
sS'worse'
p3816
I283
sS'worst'
p3817
I334
sS'bubbles'
p3818
I35
sS'ten'
p3819
I179
sS'tea'
p3820
I289
sS'directions'
p3821
I41
sS'cause'
p3822
I863
sS'breaking'
p3823
I93
sS'september'
p3824
I70
sS'mission'
p3825
I107
sS'life:)'
p3826
I32
sS'might'
p3827
I1092
sS'nephews'
p3828
I42
sS'4pm'
p3829
I31
sS'health'
p3830
I151
sS'thrown'
p3831
I45
sS"year's"
p3832
I60
sS'blank'
p3833
I36
sS"i'ma"
p3834
I30
sS'curse'
p3835
I32
sS'10am'
p3836
I28
sS'bff'
p3837
I107
sS'korea'
p3838
I25
sS'recently'
p3839
I62
sS'reasons'
p3840
I64
sS'pe'
p3841
I32
sS'pm'
p3842
I158
sS'batch'
p3843
I31
sS'lovin'
p3844
I226
sS'xoxo'
p3845
I75
sS'fast'
p3846
I504
sS'fries'
p3847
I65
sS'issues'
p3848
I79
sS'cap'
p3849
I29
sS'youre'
p3850
I75
sS'sexy'
p3851
I189
sS'dates'
p3852
I44
sS'feb'
p3853
I35
sS'usa'
p3854
I86
sS'few'
p3855
I1275
sS'sort'
p3856
I79
sS'infection'
p3857
I101
sS'sore'
p3858
I433
sS'topic'
p3859
I42
sS'looks'
p3860
I793
sS"god's"
p3861
I59
sS'academy'
p3862
I58
sS'patients'
p3863
I25
sS'refreshing'
p3864
I50
sS'visiting'
p3865
I165
sS'looked'
p3866
I207
sS'cake'
p3867
I394
sS'cross'
p3868
I136
sS'fighting'
p3869
I105
sS'cried'
p3870
I88
sS'other'
p3871
I1480
sS'album'
p3872
I133
sS'cars'
p3873
I116
sS'marching'
p3874
I80
sS'replace'
p3875
I51
sS'paperwork'
p3876
I42
sS'counter'
p3877
I29
sS'woo'
p3878
I340
sS'rd'
p3879
I26
sS're'
p3880
I112
sS'ra'
p3881
I32
sS'soaked'
p3882
I36
sS'thrilled'
p3883
I26
sS'lessons'
p3884
I80
sS'waaay'
p3885
I36
sS'haters'
p3886
I47
sS'ridiculously'
p3887
I29
sS'sleeps'
p3888
I30
sS'creek'
p3889
I57
sS'txt'
p3890
I401
sS'losing'
p3891
I136
sS'memorable'
p3892
I28
sS'thankful'
p3893
I548
sS"'<"
p3894
I29
sS"'!"
p3895
I28
sS"',"
p3896
I44
sS'ehhh'
p3897
I28
sS"'t"
p3898
I2063
sS"'s"
p3899
I4906
sS"'d"
p3900
I100
sS'skiing'
p3901
I48
sS'leave'
p3902
I1038
sS'spiritual'
p3903
I26
sS'melt'
p3904
I32
sS'jury'
p3905
I35
sS'brilliant'
p3906
I29
sS'everywhere'
p3907
I119
sS'truly'
p3908
I264
sS'natural'
p3909
I50
sS'nation'
p3910
I30
sS'square'
p3911
I66
sS'city'
p3912
I449
sS'bite'
p3913
I82
sS'physically'
p3914
I39
sS'stuffed'
p3915
I79
sS'depressed'
p3916
I132
sS'alley'
p3917
I45
sS'babysit'
p3918
I54
sS'drive'
p3919
I588
sS'thurs'
p3920
I31
sS'bright'
p3921
I236
sS'worried'
p3922
I134
sS'worries'
p3923
I55
sS'screen'
p3924
I97
sS'walmart'
p3925
I156
sS'purse'
p3926
I40
sS'awesomeness'
p3927
I62
sS'rest'
p3928
I896
sS'dark'
p3929
I256
sS'darn'
p3930
I160
sS'dare'
p3931
I105
sS'survived'
p3932
I103
sS'october'
p3933
I121
sS'tight'
p3934
I84
sS'day:)'
p3935
I109
sS'tx'
p3936
I33
sS'tv'
p3937
I408
sS'tu'
p3938
I42
sS'to'
p3939
I58003
sS'tail'
p3940
I33
sS'th'
p3941
I44
sS'te'
p3942
I90
sS'smh'
p3943
I118
sS'cable'
p3944
I56
sS'joined'
p3945
I39
sS'large'
p3946
I83
sS'tomoro'
p3947
I37
sS'gosh'
p3948
I217
sS'suggestions'
p3949
I109
sS'register'
p3950
I28
sS'volleyball'
p3951
I160
sS'upstairs'
p3952
I36
sS'grocery'
p3953
I117
sS'wishin'
p3954
I45
sS'(3)'
p3955
I29
sS'accepting'
p3956
I26
sS'golf'
p3957
I105
sS'gold'
p3958
I127
sS'body'
p3959
I362
sS'monsters'
p3960
I25
sS'compliment'
p3961
I30
sS'knowing'
p3962
I151
sS'thou'
p3963
I52
sS'),'
p3964
I264
sS').'
p3965
I345
sS')!'
p3966
I39
sS'resting'
p3967
I34
sS'straight'
p3968
I205
sS'person'
p3969
I1081
sS'formal'
p3970
I43
sS'palm'
p3971
I35
sS'dating'
p3972
I43
sS'poster'
p3973
I29
sS'posted'
p3974
I149
sS'shine'
p3975
I108
sS'scratch'
p3976
I77
sS'enjoyable'
p3977
I69
sS'seemed'
p3978
I69
sS'young'
p3979
I184
sS'magic'
p3980
I114
sS'anxious'
p3981
I29
sS'spaghetti'
p3982
I63
sS'punch'
p3983
I85
sS'invented'
p3984
I36
sS'cousins'
p3985
I206
sS'{'
p3986
I34
sS'practicing'
p3987
I74
sS'challenge'
p3988
I115
sS'bones'
p3989
I74
sS'awesomest'
p3990
I37
sS'degrees'
p3991
I175
sS'betta'
p3992
I32
sS'tonights'
p3993
I42
sS'fair'
p3994
I394
sS'system'
p3995
I105
sS'shorts'
p3996
I50
sS'depressing'
p3997
I99
sS'babes'
p3998
I30
sS';-)'
p3999
I61
sS'courtesy'
p4000
I28
sS'face'
p4001
I927
sS'fact'
p4002
I297
sS'score'
p4003
I119
sS'listened'
p4004
I54
sS'va'
p4005
I57
sS'vs'
p4006
I188
sS'emotionally'
p4007
I31
sS'drawing'
p4008
I119
sS'rooms'
p4009
I37
sS'government'
p4010
I48
sS'password'
p4011
I26
sS'canyon'
p4012
I32
sS'constantly'
p4013
I43
sS'convince'
p4014
I28
sS'=-)'
p4015
I119
sS'=-('
p4016
I32
sS'again.'
p4017
I41
sS'again!'
p4018
I40
sS'ghost'
p4019
I58
sS'lasted'
p4020
I42
sS'chill'
p4021
I382
sS'special'
p4022
I476
sS'chem'
p4023
I114
sS'officially'
p4024
I716
sS'crunch'
p4025
I25
sS'items'
p4026
I36
sS'graders'
p4027
I37
sS'highly'
p4028
I61
sS'total'
p4029
I147
sS'pizza'
p4030
I431
sS'earlier'
p4031
I200
sS'south'
p4032
I156
sS'whip'
p4033
I39
sS'band'
p4034
I680
sS'bang'
p4035
I64
sS'bank'
p4036
I88
sS'hooked'
p4037
I42
sS'medicine'
p4038
I96
sS'-<'
p4039
I121
sS'delicious'
p4040
I226
sS'enjoyed'
p4041
I341
sS'hrs'
p4042
I178
sS'ipad'
p4043
I45
sS'nasty'
p4044
I77
sS'miserable'
p4045
I97
sS'warmth'
p4046
I30
sS'applied'
p4047
I52
sS'skipping'
p4048
I28
sS'perform'
p4049
I40
sS'boxes'
p4050
I59
sS'unless'
p4051
I123
sS'post'
p4052
I854
sS'months'
p4053
I634
sS'waz'
p4054
I28
sS'way'
p4055
I3182
sS'wat'
p4056
I219
sS'was'
p4057
I11478
sS'war'
p4058
I136
sS'becoming'
p4059
I86
sS'moore'
p4060
I43
sS'brothers'
p4061
I163
sS"daddy's"
p4062
I32
sS'grateful'
p4063
I196
sS'certainly'
p4064
I41
sS'kitten'
p4065
I74
sS'uniform'
p4066
I38
sS'usually'
p4067
I117
sS'quizzes'
p4068
I25
sS'heart'
p4069
I989
sS'heard'
p4070
I252
sS'pills'
p4071
I44
sS'looking'
p4072
I1678
sS'argh'
p4073
I29
sS'xd'
p4074
I569
sS'xp'
p4075
I92
sS'x)'
p4076
I39
sS'sociology'
p4077
I35
sS'slap'
p4078
I26
sS'fifth'
p4079
I28
sS'help'
p4080
I1252
sS'only'
p4081
I3372
sS'soon'
p4082
I1647
sS'celebrate'
p4083
I274
sS'hell'
p4084
I604
sS'sport'
p4085
I56
sS'between'
p4086
I288
sS'snuggle'
p4087
I61
sS'these'
p4088
I946
sS'trick'
p4089
I116
sS'orientation'
p4090
I91
sS'canceled'
p4091
I107
sS'figuring'
p4092
I28
sS'closest'
p4093
I34
sS'favorites'
p4094
I42
sS'cupcake'
p4095
I38
sS'breeze'
p4096
I42
sS'spectacular'
p4097
I36
sS'miracle'
p4098
I53
sS't'
p4099
I103
sS'log'
p4100
I61
sS'lol'
p4101
I1038
sS'los'
p4102
I95
sS'low'
p4103
I153
sS'lot'
p4104
I1218
sS'surrounded'
p4105
I36
sS'cookies'
p4106
I493
sS'vegetarian'
p4107
I25
sS'family'
p4108
I2994
sS'takes'
p4109
I223
sS'excuse'
p4110
I63
sS'dream'
p4111
I368
sS'mcdonalds'
p4112
I65
sS'hittin'
p4113
I27
sS'selling'
p4114
I90
sS'taken'
p4115
I261
sS'kat'
p4116
I38
sS'northern'
p4117
I33
sS'damn'
p4118
I758
sS'older'
p4119
I141
sS'friends:)'
p4120
I26
sS'game'
p4121
I2125
sS'wings'
p4122
I125
sS'within'
p4123
I138
sS'great'
p4124
I6407
sS'kidney'
p4125
I25
sS'assignments'
p4126
I28
sS'booty'
p4127
I35
sS'boots'
p4128
I75
sS'waking'
p4129
I240
sS'booth'
p4130
I26
sS'crap'
p4131
I540
sS'crab'
p4132
I42
sS'6am'
p4133
I67
sS'blessings'
p4134
I105
sS'madre'
p4135
I32
sS'definitely'
p4136
I424
sS'hands'
p4137
I250
sS'crossing'
p4138
I35
sS'(8)'
p4139
I26
sS'long'
p4140
I2497
sS'perfectly'
p4141
I74
sS'editing'
p4142
I50
sS'hopeful'
p4143
I25
sS'gray'
p4144
I66
sS'grab'
p4145
I57
sS'j'
p4146
I54
sS'admit'
p4147
I90
sS'quit'
p4148
I110
sS'quiz'
p4149
I112
sS'hernandez'
p4150
I52
sS'pie'
p4151
I166
sS'wooohooo'
p4152
I49
sS'shooting'
p4153
I107
sS'dose'
p4154
I30
sS'mistakes'
p4155
I77
sS'smash'
p4156
I37
sS'freedom'
p4157
I106
sS'couldnt'
p4158
I167
sS'goals'
p4159
I51
sS'eat'
p4160
I922
sS'talkin'
p4161
I90
sS'friends'
p4162
I4418
sS'asian'
p4163
I75
sS'baking'
p4164
I168
sS'orchestra'
p4165
I52
sS'dry'
p4166
I98
sS'ignoring'
p4167
I38
sS'___'
p4168
I118
sS'wars'
p4169
I96
sS'untill'
p4170
I52
sS'attempt'
p4171
I64
sS'weeks'
p4172
I960
sS'smoking'
p4173
I59
sS'week.'
p4174
I31
sS'roast'
p4175
I34
sS'side'
p4176
I577
sS'tales'
p4177
I28
sS'fave'
p4178
I48
sS'hollywood'
p4179
I39
sS'gym'
p4180
I520
sS'boarding'
p4181
I27
sS'sees'
p4182
I34
sS'modern'
p4183
I40
sS'seen'
p4184
I525
sS'seem'
p4185
I325
sS'seek'
p4186
I32
sS':)<3'
p4187
I183
sS'mashed'
p4188
I36
sS'7am'
p4189
I45
sS'doo'
p4190
I33
sS'doc'
p4191
I87
sS'alarm'
p4192
I104
sS'm'
p4193
I111
sS'dog'
p4194
I554
sS'hunger'
p4195
I25
sS'folks'
p4196
I96
sS'coast'
p4197
I62
sS"grandma's"
p4198
I58
sS'kicked'
p4199
I147
sS'uno'
p4200
I28
sS'personally'
p4201
I44
sS'make'
p4202
I3831
sS'opportunity'
p4203
I47
sS'butter'
p4204
I135
sS'dreams'
p4205
I442
sS'shoulder'
p4206
I69
sS'grading'
p4207
I27
sS'whats'
p4208
I216
sS'failure'
p4209
I30
sS'phone'
p4210
I2002
sS'teeth'
p4211
I196
sS'managed'
p4212
I106
sS'tacos'
p4213
I79
sS'):'
p4214
I38
sS'happens'
p4215
I284
sS'neck'
p4216
I110
sS'canada'
p4217
I60
sS'smells'
p4218
I149
sS'headphones'
p4219
I42
sS'xmas'
p4220
I84
sS'anyone'
p4221
I1777
sS'butt'
p4222
I292
sS'11'
p4223
I513
sS'10'
p4224
I1052
sS'15'
p4225
I413
sS'14'
p4226
I263
sS'17'
p4227
I254
sS'19'
p4228
I192
sS'18'
p4229
I307
sS'1:'
p4230
I61
sS'1)'
p4231
I58
sS'1-'
p4232
I26
sS'1.'
p4233
I159
sS'insanity'
p4234
I28
sS'estoy'
p4235
I60
sS'dull'
p4236
I39
sS'sleepin'
p4237
I51
sS'seein'
p4238
I30
sS'12th'
p4239
I30
sS'.\x94'
p4240
I34
sS'pile'
p4241
I32
sS'pill'
p4242
I26
sS'either'
p4243
I376
sS'served'
p4244
I26
sS'mixed'
p4245
I56
sS'soda'
p4246
I55
sS'film'
p4247
I59
sS'fill'
p4248
I91
sS'important'
p4249
I186
sS'dollar'
p4250
I67
sS'returning'
p4251
I27
sS'bleach'
p4252
I28
sS'difference'
p4253
I56
sS'returned'
p4254
I41
sS'public'
p4255
I90
sS'table'
p4256
I128
sS'wanted'
p4257
I750
sS'wiped'
p4258
I52
sS'there.'
p4259
I25
sS'fed'
p4260
I50
sS'indian'
p4261
I27
sS'advice'
p4262
I90
sS'internet'
p4263
I369
sS'inception'
p4264
I69
sS'todayyy'
p4265
I54
sS'>=('
p4266
I96
sS'fish'
p4267
I182
sS'hard'
p4268
I1046
sS'computers'
p4269
I47
sS'least'
p4270
I1344
sS'supposed'
p4271
I255
sS'most'
p4272
I1566
sS'8'
p4273
I560
sS'remove'
p4274
I25
sS'garcia'
p4275
I28
sS'lion'
p4276
I45
sS'burned'
p4277
I88
sS'nashville'
p4278
I43
sS'simple'
p4279
I153
sS'simply'
p4280
I124
sS'homies'
p4281
I44
sS'good!'
p4282
I40
sS'good.'
p4283
I47
sS'patient'
p4284
I70
sS'300'
p4285
I55
sS'audition'
p4286
I66
sS'oatmeal'
p4287
I36
sS'cheeks'
p4288
I26
sS'single'
p4289
I274
sS'donated'
p4290
I29
sS'helps'
p4291
I100
sS'exercise'
p4292
I62
sS'3d'
p4293
I88
sS'exchange'
p4294
I30
sS'3:'
p4295
I54
sS'33'
p4296
I62
sS'32'
p4297
I34
sS'31'
p4298
I42
sS'30'
p4299
I473
sS'36'
p4300
I31
sS'35'
p4301
I58
sS'3)'
p4302
I42
sS'3-'
p4303
I32
sS'upcoming'
p4304
I41
sS'f'
p4305
I117
sS'oct'
p4306
I26
sS'shy'
p4307
I38
sS'greater'
p4308
I37
sS'february'
p4309
I49
sS'bueno'
p4310
I46
sS'cabin'
p4311
I41
sS'apparently'
p4312
I294
sS'congrats'
p4313
I235
sS'mid'
p4314
I32
sS'mix'
p4315
I78
sS'mis'
p4316
I48
sS'request'
p4317
I63
sS'skinny'
p4318
I33
sS'theres'
p4319
I236
sS'taking'
p4320
I936
sS'gona'
p4321
I48
sS'finished'
p4322
I1122
sS'volunteer'
p4323
I58
sS'almost'
p4324
I1338
sS'jelly'
p4325
I35
sS'takers'
p4326
I41
sS'sunburn'
p4327
I75
sS'jello'
p4328
I37
sS'muscle'
p4329
I39
sS'add'
p4330
I226
sS'match'
p4331
I99
sS'italian'
p4332
I53
sS"school's"
p4333
I26
sS'pepper'
p4334
I49
sS'about'
p4335
I5317
sS'nationals'
p4336
I28
sS'skating'
p4337
I150
sS'town'
p4338
I359
sS'goin'
p4339
I1083
sS'under'
p4340
I358
sS'zach'
p4341
I75
sS'letting'
p4342
I164
sS'badly'
p4343
I99
sS'tonight:)'
p4344
I56
sS'ultimate'
p4345
I44
sS'icky'
p4346
I52
sS'toy'
p4347
I174
sS'top'
p4348
I401
sS'ton'
p4349
I116
sS'too'
p4350
I3572
sS'longgg'
p4351
I26
sS'10th'
p4352
I46
sS'though'
p4353
I1941
sS'plenty'
p4354
I60
sS'radio'
p4355
I141
sS'watch'
p4356
I1590
sS'quickly'
p4357
I88
sS'expected'
p4358
I108
sS'drugs'
p4359
I53
sS'stopping'
p4360
I40
sS'suggest'
p4361
I25
sS'mother'
p4362
I332
sS'thumbs'
p4363
I30
sS'elf'
p4364
I31
sS'5k'
p4365
I40
sS'judge'
p4366
I67
sS'5:'
p4367
I66
sS'55'
p4368
I30
sS'50'
p4369
I182
sS'5.'
p4370
I106
sS'5)'
p4371
I29
sS'successfully'
p4372
I45
sS'chapter'
p4373
I86
sS'p.s.'
p4374
I151
sS"y'"
p4375
I53
sS'ruined'
p4376
I90
sS'decorate'
p4377
I29
sS'annoying'
p4378
I158
sS'faithful'
p4379
I31
sS'coach'
p4380
I59
sS'peeps'
p4381
I246
sS'loveable'
p4382
I27
sS'guilty'
p4383
I34
sS'('
p4384
I4672
sS'sports'
p4385
I60
sS'counting'
p4386
I144
sS'1'
p4387
I1014
sS'term'
p4388
I72
sS'ughh'
p4389
I165
sS"shouldn't"
p4390
I102
sS'grad'
p4391
I86
sS'=(.'
p4392
I42
sS'given'
p4393
I144
sS'district'
p4394
I49
sS'gives'
p4395
I175
sS'cheerleading'
p4396
I27
sS'released'
p4397
I28
sS'alas'
p4398
I33
sS'freeze'
p4399
I36
sS'desperate'
p4400
I32
sS'cleared'
p4401
I26
sS'outside'
p4402
I875
sS'afterwards'
p4403
I88
sS'dis'
p4404
I63
sS'myself'
p4405
I1212
sS'trip'
p4406
I767
sS'nest'
p4407
I35
sS'magical'
p4408
I40
sS'reward'
p4409
I32
sS'ya'
p4410
I857
sS'tis'
p4411
I42
sS'accepted'
p4412
I148
sS'bracelet'
p4413
I27
sS'nails'
p4414
I158
sS'jeez'
p4415
I29
sS'jeep'
p4416
I40
sS'buds'
p4417
I34
sS'kittens'
p4418
I34
sS'artist'
p4419
I35
sS'countdown'
p4420
I77
sS'chinese'
p4421
I175
sS'dish'
p4422
I27
sS'barely'
p4423
I143
sS'activities'
p4424
I31
sS'highway'
p4425
I39
sS'what'
p4426
I6659
sS'racing'
p4427
I33
sS'heaven'
p4428
I164
sS'semester'
p4429
I417
sS'scurlock'
p4430
I30
sS'knows'
p4431
I497
sS'known'
p4432
I173
sS'glad'
p4433
I1517
sS'pong'
p4434
I35
sS'resort'
p4435
I29
sS'mates'
p4436
I27
sS'heads'
p4437
I71
sS'yall'
p4438
I198
sS'says'
p4439
I481
sS'finding'
p4440
I176
sS'propfemale'
p4441
I19541
sS'7.'
p4442
I85
sS'jst'
p4443
I60
sS'75'
p4444
I43
sS'72'
p4445
I27
sS'70'
p4446
I62
sS'nothing'
p4447
I1380
sS'7:'
p4448
I70
sS'latin'
p4449
I30
sS'creating'
p4450
I28
sS'rocking'
p4451
I35
sS'peoples'
p4452
I107
sS'chickens'
p4453
I26
sS'birthday'
p4454
I3310
sS'customers'
p4455
I30
sS'moody'
p4456
I61
sS'access'
p4457
I37
sS'freak'
p4458
I77
sS'cover'
p4459
I86
sS'rainy'
p4460
I144
sS'rains'
p4461
I57
sS'missin'
p4462
I152
sS'beers'
p4463
I31
sS'once'
p4464
I742
sS'breathing'
p4465
I49
sS'?'
p4466
I8989
sS'someday'
p4467
I66
sS'smaller'
p4468
I27
sS"dad's"
p4469
I126
sS'anywhere'
p4470
I110
sS'instead'
p4471
I474
sS'abuse'
p4472
I43
sS'honestly'
p4473
I164
sS'relay'
p4474
I39
sS'washington'
p4475
I77
sS'feast'
p4476
I28
sS'bills'
p4477
I78
sS'related'
p4478
I45
sS'4th'
p4479
I331
sS"father's"
p4480
I77
sS'their'
p4481
I1294
sS'july'
p4482
I268
sS'picked'
p4483
I188
sS'which'
p4484
I931
sS'class'
p4485
I1810
sS'chances'
p4486
I29
sS'ear'
p4487
I145
sS'lemme'
p4488
I34
sS'piano'
p4489
I127
sS'watching'
p4490
I2634
sS'midnight'
p4491
I274
sS'awww'
p4492
I200
sS'chips'
p4493
I85
sS'exam'
p4494
I305
sS'amen'
p4495
I29
sS"he's"
p4496
I86
sS'present'
p4497
I175
sS'unlike'
p4498
I25
sS'\xe9'
p4499
I48
sS'student'
p4500
I150
sS'fever'
p4501
I238
sS'smith'
p4502
I117
sS'miami'
p4503
I72
sS'fun!'
p4504
I62
sS'scared'
p4505
I279
sS'14th'
p4506
I29
sS'sweat'
p4507
I31
sS'below'
p4508
I66
sS'myy'
p4509
I30
sS'fire'
p4510
I343
sS'snowing'
p4511
I175
sS'summer'
p4512
I1352
sS'iloveyou'
p4513
I25
sS'until'
p4514
I1612
sS'9.'
p4515
I49
sS'brings'
p4516
I112
sS'99'
p4517
I38
sS'glass'
p4518
I135
sS'9:'
p4519
I60
sS'90'
p4520
I84
sS'95'
p4521
I30
sS'96'
p4522
I28
sS'smack'
p4523
I25
sS'addicted'
p4524
I88
sS'spider'
p4525
I52
sS'grapes'
p4526
I28
sS'ate'
p4527
I384
sS'atm'
p4528
I33
sS'boston'
p4529
I64
sS'season'
p4530
I529
sS'shall'
p4531
I242
sS'macbook'
p4532
I31
sS'five'
p4533
I264
sS'goodnight'
p4534
I476
sS'rolled'
p4535
I27
sS'roller'
p4536
I63
sS'10:'
p4537
I31
sS'nom'
p4538
I37
sS'2nd'
p4539
I305
sS'remembering'
p4540
I28
sS'remind'
p4541
I103
sS'right'
p4542
I3192
sS'ole'
p4543
I44
sS'amusing'
p4544
I29
sS'warm'
p4545
I434
sS'push'
p4546
I71
sS'happpy'
p4547
I36
sS's.m.j.'
p4548
I54
sS'droid'
p4549
I29
sS'bf'
p4550
I140
sS'falling'
p4551
I229
sS'ni.got.u:)'
p4552
I36
sS'by'
p4553
I3458
sS'loving'
p4554
I612
sS'stress'
p4555
I227
sS'course'
p4556
I454
sS'naked'
p4557
I42
sS'sunburnt'
p4558
I28
sS'quite'
p4559
I454
sS'training'
p4560
I218
sS'dunno'
p4561
I56
sS'massive'
p4562
I57
sS'spanish'
p4563
I205
sS'draft'
p4564
I42
sS'sad'
p4565
I1594
sS'say'
p4566
I2176
sS'rained'
p4567
I45
sS'saw'
p4568
I1039
sS'sat'
p4569
I210
sS'somethings'
p4570
I26
sS'knew'
p4571
I370
sS'knee'
p4572
I126
sS'pages'
p4573
I118
sS'jumped'
p4574
I43
sS'cities'
p4575
I25
sS'coughing'
p4576
I78
sS'blah'
p4577
I258
sS'thinkin'
p4578
I169
sS'scholarship'
p4579
I54
sS'stranger'
p4580
I48
sS';p'
p4581
I52
sS';)'
p4582
I691
sS'stone'
p4583
I64
sS'meal'
p4584
I104
sS'neighbor'
p4585
I65
sS'bond'
p4586
I26
sS'burning'
p4587
I65
sS'graduate'
p4588
I104
sS'gifts'
p4589
I179
sS'hello'
p4590
I432
sS'code'
p4591
I54
sS'hunting'
p4592
I89
sS'via'
p4593
I77
sS'teen'
p4594
I64
sS'mall'
p4595
I531
sS'male'
p4596
I34
sS'garden'
p4597
I143
sS'plant'
p4598
I43
sS'plans'
p4599
I444
sS'soundtrack'
p4600
I57
sS'trade'
p4601
I53
sS'makeup'
p4602
I92
sS'its'
p4603
I5290
sS'alll'
p4604
I150
sS'ally'
p4605
I56
sS'it.'
p4606
I117
sS'it!'
p4607
I110
sS'all!'
p4608
I51
sS'all.'
p4609
I68
sS'all-'
p4610
I31
sS'england'
p4611
I50
sS'tonite'
p4612
I214
sS'ftw'
p4613
I52
sS'hott'
p4614
I28
sS'stairs'
p4615
I81
sS'auditions'
p4616
I57
sS'buried'
p4617
I25
sS'sayin'
p4618
I89
sS'giants'
p4619
I42
sS'#'
p4620
I514
sS'europe'
p4621
I54
sS'load'
p4622
I97
sS'forgetting'
p4623
I30
sS'pound'
p4624
I35
sS'mins'
p4625
I100
sS'crying'
p4626
I137
sS'333'
p4627
I58
sS'mummy'
p4628
I78
sS'religion'
p4629
I34
sS'woah'
p4630
I29
sS'rise'
p4631
I68
sS'napping'
p4632
I42
sS'receive'
p4633
I56
sS'stops'
p4634
I35
sS'freakin'
p4635
I335
sS'gettin'
p4636
I502
sS"they've"
p4637
I25
sS'pajamas'
p4638
I32
sS'drill'
p4639
I45
sS'involved'
p4640
I59
sS'backk'
p4641
I29
sS'balls'
p4642
I89
sS'pour'
p4643
I33
sS'pieces'
p4644
I77
sS'tied'
p4645
I34
sS'mental'
p4646
I48
sS'society'
p4647
I53
sS'grilled'
p4648
I55
sS'grandpa'
p4649
I104
sS're-post'
p4650
I35
sS'allow'
p4651
I45
sS'stronger'
p4652
I59
sS'manga'
p4653
I26
sS'=p'
p4654
I166
sS'=d'
p4655
I180
sS'luck!'
p4656
I30
sS'rough'
p4657
I140
sS'=]'
p4658
I38
sS'cranky'
p4659
I30
sS'lucky'
p4660
I411
sS'=/'
p4661
I132
sS'=)'
p4662
I11358
sS'lazy'
p4663
I290
sS'greatful'
p4664
I29
sS'waste'
p4665
I91
sS'sad.'
p4666
I25
sS'broccoli'
p4667
I25
sS'less'
p4668
I501
sS'ganna'
p4669
I35
sS'trash'
p4670
I44
sS'schedule'
p4671
I272
sS'lastnight'
p4672
I34
sS'hiding'
p4673
I39
sS'shoppin'
p4674
I60
sS'singing'
p4675
I313
sS'ughhh'
p4676
I195
sS'idol'
p4677
I90
sS'monday'
p4678
I1031
sS'inspiration'
p4679
I40
sS"we'll"
p4680
I238
sS'opportunities'
p4681
I28
sS'blueberry'
p4682
I65
sS'haha'
p4683
I515
sS'pierced'
p4684
I63
sS'eclipse'
p4685
I170
sS'crackers'
p4686
I37
sS'goood'
p4687
I231
sS'aaah'
p4688
I26
sS'fav'
p4689
I112
sS'lab'
p4690
I168
sS'lay'
p4691
I210
sS'lap'
p4692
I42
sS'las'
p4693
I108
sS'ticket'
p4694
I140
sS'break'
p4695
I1325
sS'bread'
p4696
I148
sS'blows'
p4697
I28
sS'network'
p4698
I56
sS'target'
p4699
I80
sS'iron'
p4700
I92
sS'everything'
p4701
I1524
sS'toast'
p4702
I81
sS'happiest'
p4703
I68
sS'besties'
p4704
I109
sS'pushed'
p4705
I43
sS'hardest'
p4706
I57
sS'tough'
p4707
I159
sS'relaxing'
p4708
I419
sS'ideas'
p4709
I187
sS"she'll"
p4710
I62
sS'emotional'
p4711
I51
sS'holding'
p4712
I89
sS'scored'
p4713
I35
sS'3am'
p4714
I42
sS'upper'
p4715
I25
sS'sincerely'
p4716
I30
sS'>:)'
p4717
I270
sS'>:('
p4718
I1105
sS'angels'
p4719
I70
sS'club'
p4720
I244
sS'?.'
p4721
I71
sS'?)'
p4722
I46
sS'whenever'
p4723
I97
sS'yah'
p4724
I93
sS'birthdays'
p4725
I126
sS'shouldnt'
p4726
I31
sS'accomplish'
p4727
I45
sS'rly'
p4728
I29
sS'yourself'
p4729
I260
sS'that'
p4730
I14499
sS'thai'
p4731
I33
sS'flowers'
p4732
I138
sS'than'
p4733
I2268
sS'terrific'
p4734
I30
sS'begin'
p4735
I177
sS'aint'
p4736
I169
sS'title'
p4737
I32
sS'learning'
p4738
I167
sS'cares'
p4739
I82
sS'figured'
p4740
I133
sS'worry'
p4741
I236
sS'charger'
p4742
I82
sS'thinking'
p4743
I824
sS'asap'
p4744
I75
sS'bedtime'
p4745
I108
sS'elementary'
p4746
I39
sS'pirates'
p4747
I31
sS'cats'
p4748
I115
sS'carpet'
p4749
I39
sS'handle'
p4750
I108
sS'manager'
p4751
I56
sS"i'll"
p4752
I2335
sS'forgive'
p4753
I52
sS'private'
p4754
I39
sS'amount'
p4755
I95
sS'egg'
p4756
I70
sS'goodmorning'
p4757
I61
sS'motivated'
p4758
I37
sS'todo'
p4759
I31
sS'event'
p4760
I127
sS'rude'
p4761
I61
sS'superbowl'
p4762
I62
sS'albums'
p4763
I25
sS'philly'
p4764
I37
sS'wats'
p4765
I31
sS'mobile'
p4766
I42
sS'basement'
p4767
I49
sS'double'
p4768
I205
sS'x'
p4769
I77
sS'throwing'
p4770
I99
sS'probably'
p4771
I734
sS'fiance'
p4772
I53
sS'clothes'
p4773
I290
sS'whatever'
p4774
I361
sS'cleaning'
p4775
I612
sS'yankees'
p4776
I27
sS'parade'
p4777
I161
sS'fathers'
p4778
I61
sS'some'
p4779
I6987
sS'b/c'
p4780
I60
sS'draw'
p4781
I86
sS'kansas'
p4782
I46
sS'drag'
p4783
I62
sS'facebook'
p4784
I1461
sS'button'
p4785
I98
sS'plays'
p4786
I71
sS'nitey'
p4787
I66
sS'vbs'
p4788
I33
sS"weren't"
p4789
I72
sS'popped'
p4790
I25
sS'talks'
p4791
I48
sS'control'
p4792
I103
sS'longest'
p4793
I65
sS'him'
p4794
I2039
sS'front'
p4795
I311
sS'seniors'
p4796
I82
sS'florida'
p4797
I252
sS'evans'
p4798
I29
sS'quality'
p4799
I127
sS'playlist'
p4800
I25
sS'bieber'
p4801
I62
sS'are'
p4802
I7883
sS'need'
p4803
I3693
sS'eachother'
p4804
I28
sS'upset'
p4805
I196
sS'impression'
p4806
I72
sS'various'
p4807
I34
sS'shake'
p4808
I86
sS'computer'
p4809
I646
sS'a.m.'
p4810
I90
sS'poem'
p4811
I50
sS'harder'
p4812
I117
sS'texting'
p4813
I124
sS'utah'
p4814
I49
sS'crushed'
p4815
I32
sS'warmer'
p4816
I39
sS'museum'
p4817
I54
sS'signed'
p4818
I74
sS'pumped'
p4819
I126
sS'piece'
p4820
I228
sS'contest'
p4821
I72
sS'ground'
p4822
I132
sS'3rd'
p4823
I206
sS'better!'
p4824
I33
sS'better.'
p4825
I44
sS'teaching'
p4826
I129
sS'updated'
p4827
I48
sS'stolen'
p4828
I55
sS'updates'
p4829
I65
sS'skills'
p4830
I84
sS'force'
p4831
I78
sS'japanese'
p4832
I59
sS'lights'
p4833
I140
sS'tips'
p4834
I36
sS'pancakes'
p4835
I128
sS'army'
p4836
I78
sS'arms'
p4837
I182
sS'vodka'
p4838
I32
sS'thankyou'
p4839
I27
sS'woohoo'
p4840
I218
sS'cheese'
p4841
I282
sS'better'
p4842
I3942
sS'workout'
p4843
I211
sS'content'
p4844
I89
sS'little'
p4845
I3358
sS'grade'
p4846
I273
sS'boating'
p4847
I30
sS'somewhat'
p4848
I69
sS'silly'
p4849
I166
sS'edge'
p4850
I31
sS'lyrics'
p4851
I51
sS'wearing'
p4852
I184
sS'13'
p4853
I308
sS'12'
p4854
I528
sS'16'
p4855
I309
sS'brought'
p4856
I225
sS'said'
p4857
I935
sS'1,'
p4858
I46
sS'now.'
p4859
I76
sS'now!'
p4860
I40
sS'grown'
p4861
I95
sS'sittin'
p4862
I131
sS'thoughts'
p4863
I186
sS'left'
p4864
I1276
sS'just'
p4865
I14916
sS'background'
p4866
I35
sS'-_-'
p4867
I67
sS'lied'
p4868
I51
sS'lies'
p4869
I64
sS'attached'
p4870
I25
sS'babysitting'
p4871
I228
sS'daily'
p4872
I68
sS'mile'
p4873
I135
sS'milk'
p4874
I145
sS'show'
p4875
I1142
sS'lake'
p4876
I378
sS'shoe'
p4877
I34
sS'zzz'
p4878
I56
sS'french'
p4879
I185
sS'earthquake'
p4880
I29
sS'massage'
p4881
I120
sS'pero'
p4882
I49
sS'bites'
p4883
I38
sS'nyc'
p4884
I95
sS'staying'
p4885
I319
sS'q'
p4886
I62
sS'switch'
p4887
I52
sS'ours'
p4888
I25
sS'lungs'
p4889
I39
sS'bein'
p4890
I97
sS'california'
p4891
I181
sS'theatre'
p4892
I85
sS'normal'
p4893
I214
sS'especially'
p4894
I463
sS'finishing'
p4895
I196
sS'gaga'
p4896
I83
sS'parent'
p4897
I45
sS'sprained'
p4898
I35
sS'pay'
p4899
I317
sS'stepped'
p4900
I29
sS'running'
p4901
I583
sS'disappointed'
p4902
I100
sS'laughing'
p4903
I180
sS'organizing'
p4904
I30
sS'road'
p4905
I374
sS"brother's"
p4906
I46
sS'fellow'
p4907
I70
sS'forget'
p4908
I420
sS'neighborhood'
p4909
I77
sS'further'
p4910
I28
sS'abt'
p4911
I36
sS'(2)'
p4912
I31
sS'shark'
p4913
I38
sS'share'
p4914
I197
sS'lifes'
p4915
I58
sS'frisbee'
p4916
I28
sS'5:30'
p4917
I55
sS'thnx'
p4918
I26
sS'upside'
p4919
I55
sS'hurting'
p4920
I127
sS'good'
p4921
I12143
sS'gooo'
p4922
I43
sS'pregnant'
p4923
I68
sS'lovers'
p4924
I31
sS'wanting'
p4925
I149
sS'5th'
p4926
I134
sS'muscles'
p4927
I48
sS'gotten'
p4928
I187
sS'outta'
p4929
I221
sS'mountain'
p4930
I103
sS'dancing'
p4931
I309
sS'giant'
p4932
I106
sS'hold'
p4933
I301
sS'donate'
p4934
I83
sS'annual'
p4935
I41
sS'oovoo'
p4936
I29
sS'headaches'
p4937
I50
sS'mikey'
p4938
I29
sS'meeting'
p4939
I381
sS'itself'
p4940
I86
sS'!:)'
p4941
I50
sS'italy'
p4942
I34
sS'yesterday'
p4943
I1297
sS'steps'
p4944
I34
sS'snap'
p4945
I36
sS'bio'
p4946
I80
sS'confession'
p4947
I84
sS'big'
p4948
I1405
sS'bit'
p4949
I1026
sS'google'
p4950
I82
sS'often'
p4951
I190
sS'ourselves'
p4952
I40
sS'costumes'
p4953
I29
sS'drama'
p4954
I229
sS"tomorrow's"
p4955
I62
sS'papa'
p4956
I58
sS'mia'
p4957
I49
sS'depression'
p4958
I32
sS'sink'
p4959
I33
sS'others'
p4960
I280
sS'sing'
p4961
I231
sS'unpacking'
p4962
I29
sS'dj'
p4963
I35
sS'tan'
p4964
I146
sS'winning'
p4965
I98
sS'<'
p4966
I34600
sS'dad'
p4967
I897
sS'dam'
p4968
I67
sS'dat'
p4969
I90
sS'day'
p4970
I16580
sS'inbox'
p4971
I274
sS'early'
p4972
I1273
sS'gear'
p4973
I34
sS'lovee'
p4974
I46
sS'loved'
p4975
I675
sS'daycare'
p4976
I29
sS'loves'
p4977
I1393
sS'lover'
p4978
I56
sS'text'
p4979
I1426
sS'photography'
p4980
I42
sS'calling'
p4981
I158
sS'routine'
p4982
I42
sS'otherwise'
p4983
I94
sS'mafia'
p4984
I45
sS'plain'
p4985
I55
sS'helped'
p4986
I204
sS'position'
p4987
I43
sS'clinic'
p4988
I36
sS'quiero'
p4989
I42
sS'fyi'
p4990
I50
sS'soft'
p4991
I69
sS'stuffy'
p4992
I26
sS'brand'
p4993
I101
sS'reminds'
p4994
I83
sS"life's"
p4995
I59
sS'yell'
p4996
I30
sS'thunderstorms'
p4997
I43
sS'8th'
p4998
I94
sS'sleep'
p4999
I3190
sS'feeding'
p5000
I28
sS'christ'
p5001
I84
sS'saint'
p5002
I35
sS'changes'
p5003
I88
sS'muse'
p5004
I33
sS'tampa'
p5005
I41
sS'must'
p5006
I625
sS'talkative'
p5007
I85
sS'writing'
p5008
I358
sS"grey's"
p5009
I39
sS'explode'
p5010
I39
sS'celebrating'
p5011
I159
sS'driving'
p5012
I456
sS'arizona'
p5013
I69
sS'free'
p5014
I890
sS'laughed'
p5015
I74
sS'rides'
p5016
I75
sS'cookout'
p5017
I31
sS'glow'
p5018
I26
sS'rogers'
p5019
I28
sS'2morrow'
p5020
I130
sS'pops'
p5021
I63
sS'earth'
p5022
I183
sS'chipotle'
p5023
I42
sS'players'
p5024
I50
sS'faces'
p5025
I100
sS'bathroom'
p5026
I107
sS'confident'
p5027
I34
sS'catch'
p5028
I362
sS'fridays'
p5029
I57
sS'uploading'
p5030
I44
sS'hearts'
p5031
I377
sS'cutest'
p5032
I103
sS'puzzle'
p5033
I65
sS'puke'
p5034
I28
sS'maddy'
p5035
I36
sS'younger'
p5036
I43
sS'serious'
p5037
I146
sS'brother'
p5038
I650
sS'movie'
p5039
I1609
sS'drinks'
p5040
I153
sS'stressful'
p5041
I87
sS'graduated'
p5042
I47
sS'awkward'
p5043
I64
sS'moms'
p5044
I193
sS'sunrise'
p5045
I39
sS'charleston'
p5046
I26
sS'view'
p5047
I64
sS'white'
p5048
I472
sS'wide'
p5049
I115
sS'happily'
p5050
I35
sS'tanning'
p5051
I89
sS'multiple'
p5052
I32
sS'tornado'
p5053
I47
sS'everrr'
p5054
I30
sS"that's"
p5055
I677
sS":'("
p5056
I162
sS'comp'
p5057
I64
sS'como'
p5058
I29
sS'come'
p5059
I2981
sS'23'
p5060
I101
sS'peaceful'
p5061
I75
sS"(i'm"
p5062
I28
sS'10:30'
p5063
I42
sS'bowl'
p5064
I175
sS'physical'
p5065
I67
sS'atleast'
p5066
I104
sS"we've"
p5067
I122
sS'fridge'
p5068
I52
sS'valley'
p5069
I70
sS'toilet'
p5070
I37
sS'5'
p5071
I1068
sS'championship'
p5072
I39
sS'booked'
p5073
I47
sS'calls'
p5074
I177
sS'exhausting'
p5075
I48
sS'<3"'
p5076
I67
sS'<3.'
p5077
I32
sS'will'
p5078
I6299
sS'anniversary'
p5079
I210
sS'relaxation'
p5080
I67
sS'suddenly'
p5081
I58
sS'chores'
p5082
I53
sS'whore'
p5083
I37
sS'return'
p5084
I149
sS'hoping'
p5085
I498
sS'cigarettes'
p5086
I25
sS'success'
p5087
I175
sS'convinced'
p5088
I34
sS'dang'
p5089
I200
sS'seasons'
p5090
I31
sS'doggie'
p5091
I46
sS'fone'
p5092
I55
sS'believe'
p5093
I893
sS'cartoons'
p5094
I53
sS'tourney'
p5095
I29
sS'dumb'
p5096
I196
sS'freshmen'
p5097
I33
sS'c'
p5098
I186
sS'finds'
p5099
I64
sS'wrap'
p5100
I54
sS'rip'
p5101
I243
sS'rid'
p5102
I126
sS'moving'
p5103
I457
sS'noodle'
p5104
I45
sS'netflix'
p5105
I70
sS'arrived'
p5106
I96
sS'prom'
p5107
I276
sS'prob'
p5108
I58
sS'because'
p5109
I2103
sS'familia'
p5110
I31
sS'called'
p5111
I434
sS'wished'
p5112
I170
sS'wishes'
p5113
I1214
sS'notes'
p5114
I83
sS'waiting'
p5115
I856
sS'engine'
p5116
I31
sS'apple'
p5117
I197
sS'apply'
p5118
I42
sS'iced'
p5119
I39
sS'txtt'
p5120
I32
sS'porch'
p5121
I47
sS'proof'
p5122
I32
sS'tax'
p5123
I40
sS'tay'
p5124
I43
sS'tag'
p5125
I105
sS'panic'
p5126
I35
sS'bye'
p5127
I238
sS'crash'
p5128
I70
sS'practice'
p5129
I613
sS'myspace'
p5130
I60
sS'accent'
p5131
I28
sS'afraid'
p5132
I134
sS'allergies'
p5133
I83
sS'workin'
p5134
I214
sS'words'
p5135
I444
sS'ghetto'
p5136
I31
sS'closer'
p5137
I136
sS'closet'
p5138
I57
sS'genius'
p5139
I37
sS'closed'
p5140
I166
sS'pants'
p5141
I161
sS'safely'
p5142
I68
sS'bbq'
p5143
I133
sS'verizon'
p5144
I34
sS'mighty'
p5145
I33
sS'rocked'
p5146
I65
sS'sky'
p5147
I211
sS'ski'
p5148
I30
sS'sick'
p5149
I2514
sS'know'
p5150
I5226
sS'nigga'
p5151
I26
sS'june'
p5152
I100
sS'entirely'
p5153
I39
sS'getting'
p5154
I3580
sS'registration'
p5155
I35
sS"i've"
p5156
I1827
sS"'ll"
p5157
I329
sS'illinois'
p5158
I36
s.